ccopy_reg
_reconstructor
p0
(cpsychopy.data.experiment
ExperimentHandler
p1
c__builtin__
object
p2
Ntp3
Rp4
(dp5
S'originPath'
p6
NsS'dataFileName'
p7
VC:\u005cUsers\u005cegnerlab\u005cDesktop\u005cTheta - jack\u005cdata/227
p8
sS'runtimeInfo'
p9
NsS'name'
p10
S''
p11
sS'dataNames'
p12
(lp13
S'Trial'
p14
aS'ButtonPressTimeinOverallExp'
p15
aS'squareStartTime'
p16
aS'squareStartFrame'
p17
aS'flash_circleStartTime'
p18
aS'flash_circleStartFrame'
p19
aS'flash_circleEndTime'
p20
aS'flash_circleEndFrame'
p21
aS'lilsquareStartTime'
p22
aS'lilsquareStartFrame'
p23
aS'lilsquareEndTime'
p24
aS'lilsquareEndFrame'
p25
aS'lilafterflash'
p26
aS'ButtonPressTime'
p27
aS'Key'
p28
aS'false_presses'
p29
aS'Acc'
p30
aS'Opacity'
p31
aS'FlashSide'
p32
aS'CorrSide'
p33
asS'autoLog'
p34
I01
sS'extraInfo'
p35
(dp36
S'date'
p37
V2018_Dec_05_1106
p38
sS'frameRate'
p39
cnumpy.core.multiarray
scalar
p40
(cnumpy
dtype
p41
(S'f8'
p42
I0
I1
tp43
Rp44
(I3
S'<'
p45
NNNI-1
I-1
I0
tp46
bS'\x7f\xae~_\xdd\xfaM@'
p47
tp48
Rp49
sS'participant'
p50
g0
(cfuture.types.newstr
newstr
p51
c__builtin__
unicode
p52
V227
p53
tp54
Rp55
ssS'loopsUnfinished'
p56
(lp57
sS'saveWideText'
p58
I00
sS'thisEntry'
p59
(dp60
sS'version'
p61
g11
sS'_paramNamesSoFar'
p62
(lp63
sS'entries'
p64
(lp65
(dp66
g30
I1
sg20
F1.4998293333337642
sg27
F2.617467247939203
sg32
g40
(g41
(S'i4'
p67
I0
I1
tp68
Rp69
(I3
S'<'
p70
NNNI-1
I-1
I0
tp71
bS'\xff\xff\xff\xff'
p72
tp73
Rp74
sg39
g49
sg25
I131
sg14
I0
sg17
I62
sg37
g38
sg15
F205.89431021886412
sg31
F0.11900000000000001
sg50
g55
sg23
I129
sg26
I10
sg33
g40
(g69
S'\x01\x00\x00\x00'
p75
tp76
Rp77
sg18
F1.4665242183837108
sg16
F1.049549795628991
sg29
I0
sg28
S'l'
p78
sg22
F2.1671609461773187
sg19
I87
sg24
F2.2004392971284688
sg21
I89
sa(dp79
g30
I1
sg20
F1.549681966076605
sg27
F3.5513725010096096
sg32
g40
(g69
S'\x01\x00\x00\x00'
p80
tp81
Rp82
sg39
g49
sg25
I157
sg14
I-1
sg17
I62
sg37
g38
sg15
F208.53000085428357
sg31
F0.11900000000000001
sg50
g55
sg23
I155
sg26
I32
sg33
g40
(g69
S'\xff\xff\xff\xff'
p83
tp84
Rp85
sg18
F1.5164369785343297
sg16
F1.0327518690028228
sg29
I0
sg28
S'a'
p86
sg22
F2.5839513202081434
sg19
I91
sg24
F2.617349559441209
sg21
I93
sa(dp87
g30
I1
sg20
F1.4662276139715686
sg27
F3.7180384955136105
sg32
g40
(g69
S'\xff\xff\xff\xff'
p88
tp89
Rp90
sg39
g49
sg25
I194
sg14
I-2
sg17
I60
sg37
g38
sg15
F212.09942515945295
sg31
F0.11900000000000001
sg50
g55
sg23
I192
sg26
I74
sg33
g40
(g69
S'\xff\xff\xff\xff'
p91
tp92
Rp93
sg18
F1.4329870260553434
sg16
F0.9992902026278898
sg29
I0
sg28
S'a'
p94
sg22
F3.2010552369756624
sg19
I86
sg24
F3.2343904157169163
sg21
I88
sa(dp95
g30
I1
sg20
F1.5163277225219645
sg27
F3.6013266904628836
sg32
g40
(g69
S'\xff\xff\xff\xff'
p96
tp97
Rp98
sg39
g49
sg25
I186
sg14
I-3
sg17
I60
sg37
g38
sg15
F215.8357226056396
sg31
F0.11900000000000001
sg50
g55
sg23
I184
sg26
I63
sg33
g40
(g69
S'\x01\x00\x00\x00'
p99
tp100
Rp101
sg18
F1.4830798019538634
sg16
F0.9993649953394197
sg29
I0
sg28
S'l'
p102
sg22
F3.067587667843327
sg19
I89
sg24
F3.1009448444237933
sg21
I91
sa(dp103
g30
I1
sg20
F1.966698551317677
sg27
F3.201131129579153
sg32
g40
(g69
S'\x01\x00\x00\x00'
p104
tp105
Rp106
sg39
g49
sg25
I165
sg14
I-4
sg17
I66
sg37
g38
sg15
F219.4551403298392
sg31
F0.1134
sg50
g55
sg23
I163
sg26
I15
sg33
g40
(g69
S'\x01\x00\x00\x00'
p107
tp108
Rp109
sg18
F1.9334550303174183
sg16
F1.0994698884314857
sg29
I0
sg28
S'l'
p110
sg22
F2.7173517958726734
sg19
I116
sg24
F2.750713005370926
sg21
I118
sa(dp111
g30
I0
sg20
F1.649763394787442
sg27
F4.185154456121381
sg32
g40
(g69
S'\x01\x00\x00\x00'
p112
tp113
Rp114
sg39
g49
sg25
I191
sg14
I-5
sg17
I65
sg37
g38
sg15
F222.6743613932049
sg31
F0.10779999999999999
sg50
g55
sg23
I189
sg26
I60
sg33
g40
(g69
S'\x01\x00\x00\x00'
p115
tp116
Rp117
sg18
F1.616462312755175
sg16
F1.0827896503033116
sg29
I0
sg28
S'nope'
p118
sg22
F3.1510123228654265
sg19
I97
sg24
F3.1844222942600027
sg21
I99
sa(dp119
g30
I1
sg20
F1.5831850616959855
sg27
F2.951061378000304
sg32
g40
(g69
S'\xff\xff\xff\xff'
p120
tp121
Rp122
sg39
g49
sg25
I156
sg14
I-6
sg17
I60
sg37
g38
sg15
F226.86083205410978
sg31
F0.1246
sg50
g55
sg23
I154
sg26
I29
sg33
g40
(g69
S'\x01\x00\x00\x00'
p123
tp124
Rp125
sg18
F1.5499492399394512
sg16
F0.9994639856740832
sg29
I0
sg28
S'l'
p126
sg22
F2.567432766314596
sg19
I93
sg24
F2.600819639977999
sg21
I95
sa(dp127
g30
I1
sg20
F1.8997396554332227
sg27
F2.917277443164494
sg32
g40
(g69
S'\x01\x00\x00\x00'
p128
tp129
Rp130
sg39
g49
sg25
I154
sg14
I-7
sg17
I70
sg37
g38
sg15
F229.82999986433424
sg31
F0.119
sg50
g55
sg23
I152
sg26
I8
sg33
g40
(g69
S'\xff\xff\xff\xff'
p131
tp132
Rp133
sg18
F1.86644627264468
sg16
F1.1659202673472464
sg29
I0
sg28
S'a'
p134
sg22
F2.533689894073177
sg19
I112
sg24
F2.566985843295697
sg21
I114
sa(dp135
g30
I1
sg20
F1.8665448963292874
sg27
F3.2511021840618923
sg32
g40
(g69
S'\x01\x00\x00\x00'
p136
tp137
Rp138
sg39
g49
sg25
I178
sg14
I-8
sg17
I64
sg37
g38
sg15
F232.76558831974398
sg31
F0.11339999999999999
sg50
g55
sg23
I176
sg26
I34
sg33
g40
(g69
S'\x01\x00\x00\x00'
p139
tp140
Rp141
sg18
F1.8333079747390002
sg16
F1.0659810914075933
sg29
I0
sg28
S'l'
p142
sg22
F2.9341871922370046
sg19
I110
sg24
F2.967613295360934
sg21
I112
sa(dp143
g30
I1
sg20
F1.7665639244369231
sg27
F2.717420355824288
sg32
g40
(g69
S'\x01\x00\x00\x00'
p144
tp145
Rp146
sg39
g49
sg25
I138
sg14
I-9
sg17
I61
sg37
g38
sg15
F236.03480280208169
sg31
F0.10779999999999998
sg50
g55
sg23
I136
sg26
I0
sg33
g40
(g69
S'\xff\xff\xff\xff'
p147
tp148
Rp149
sg18
F1.733316370518878
sg16
F1.0160892291460186
sg29
I0
sg28
S'a'
p150
sg22
F2.2670887565473095
sg19
I104
sg24
F2.3004686642088927
sg21
I106
sa(dp151
g30
I1
sg20
F1.7932674839976244
sg27
F3.0609828127198853
sg32
g40
(g69
S'\xff\xff\xff\xff'
p152
tp153
Rp154
sg39
g49
sg25
I154
sg14
I-10
sg17
I66
sg37
g38
sg15
F238.9603782017366
sg31
F0.10219999999999997
sg50
g55
sg23
I152
sg26
I14
sg33
g40
(g69
S'\xff\xff\xff\xff'
p155
tp156
Rp157
sg18
F1.759978134126868
sg16
F1.0927829079446383
sg29
I0
sg28
S'a'
p158
sg22
F2.5272327911807224
sg19
I106
sg24
F2.5605877679772675
sg21
I108
sa(dp159
g30
I1
sg20
F1.816297402139753
sg27
F3.4176028280053288
sg32
g40
(g69
S'\x01\x00\x00\x00'
p160
tp161
Rp162
sg39
g49
sg25
I180
sg14
I-11
sg17
I60
sg37
g38
sg15
F242.03980511368718
sg31
g40
(g44
S'\xc5\x95\xca\x07\xc8\x07\xb7?'
p163
tp164
Rp165
sg50
g55
sg23
I178
sg26
I39
sg33
g40
(g69
S'\x01\x00\x00\x00'
p166
tp167
Rp168
sg18
F1.7830054858932272
sg16
F0.9990584918996319
sg29
I0
sg28
S'l'
p169
sg22
F2.967307891813107
sg19
I107
sg24
F3.000693298992701
sg21
I109
sa(dp170
g30
I1
sg20
F1.7160513562266715
sg27
F2.9337611671653576
sg32
g40
(g69
S'\xff\xff\xff\xff'
p171
tp172
Rp173
sg39
g49
sg25
I148
sg14
I-12
sg17
I66
sg37
g38
sg15
F245.47585644054925
sg31
g40
(g44
S'X9\x03r\x05\xb7\xb4?'
p174
tp175
Rp176
sg50
g55
sg23
I146
sg26
I13
sg33
g40
(g69
S'\x01\x00\x00\x00'
p177
tp178
Rp179
sg18
F1.6828195673879236
sg16
F1.0989727369742468
sg29
I0
sg28
S'l'
p180
sg22
F2.4334093848010525
sg19
I101
sg24
F2.466763628355693
sg21
I103
sa(dp181
g30
I0
sg20
F1.949737473973073
sg27
F3.8347088712616824
sg32
g40
(g69
S'\x01\x00\x00\x00'
p182
tp183
Rp184
sg39
g49
sg25
I170
sg14
I-13
sg17
I67
sg37
g38
sg15
F248.42811523505952
sg31
g40
(g44
S'\x864\x0e\x0eM\xec\xb2?'
p185
tp186
Rp187
sg50
g55
sg23
I168
sg26
I21
sg33
g40
(g69
S'\x01\x00\x00\x00'
p188
tp189
Rp190
sg18
F1.9164488573442213
sg16
F1.1159550789161585
sg29
I0
sg28
g118
sg22
F2.800481679616496
sg19
I115
sg24
F2.833961310912855
sg21
I117
sa(dp191
g30
I1
sg20
F1.4661645534797572
sg27
F3.0842239102348685
sg32
g40
(g69
S'\x01\x00\x00\x00'
p192
tp193
Rp194
sg39
g49
sg25
I162
sg14
I-14
sg17
I60
sg37
g38
sg15
F252.26431519404287
sg31
g40
(g44
S'\xc2\xec\x0e\x8d\xc7\xbc\xb6?'
p195
tp196
Rp197
sg50
g55
sg23
I160
sg26
I42
sg33
g40
(g69
S'\xff\xff\xff\xff'
p198
tp199
Rp200
sg18
F1.4329778602696024
sg16
F0.9993089007912204
sg29
I0
sg28
S'a'
p201
sg22
F2.6672267563990317
sg19
I86
sg24
F2.7005175728118047
sg21
I88
sa(dp202
g30
I0
sg20
F1.7830494816298597
sg27
F3.5846086893579923
sg32
g40
(g69
S'\xff\xff\xff\xff'
p203
tp204
Rp205
sg39
g49
sg25
I155
sg14
I-15
sg17
I66
sg37
g38
sg15
F255.36679512192495
sg31
g40
(g44
S'\x85\xf3~\xe9/\xe4\xb5?'
p206
tp207
Rp208
sg50
g55
sg23
I153
sg26
F16.0
sg33
g40
(g69
S'\xff\xff\xff\xff'
p209
tp210
Rp211
sg18
F1.7497297013760544
sg16
F1.0992880394915119
sg29
I0
sg28
g118
sg22
F2.550384064146783
sg19
I105
sg24
F2.5837236424558796
sg21
I107
sa(dp212
g30
I1
sg20
F1.799767482734751
sg27
F2.783965692156926
sg32
g40
(g69
S'\x01\x00\x00\x00'
p213
tp214
Rp215
sg39
g49
sg25
I141
sg14
I-16
sg17
I65
sg37
g38
sg15
F258.9529036981985
sg31
g40
(g44
S'\xa7\xd3\xa3\x99\xee\x08\xb8?'
p216
tp217
Rp218
sg50
g55
sg23
I139
sg26
I1
sg33
g40
(g69
S'\x01\x00\x00\x00'
p219
tp220
Rp221
sg18
F1.7665496258996427
sg16
F1.0825707716867328
sg29
I0
sg28
S'l'
p222
sg22
F2.3168988600955345
sg19
I106
sg24
F2.3502501705661416
sg21
I108
sa(dp223
g30
I0
sg20
F1.8330080706509762
sg27
F4.451741294993553
sg32
g40
(g69
S'\x01\x00\x00\x00'
p224
tp225
Rp226
sg39
g49
sg25
I207
sg14
I-17
sg17
I72
sg37
g38
sg15
F261.75515693821944
sg31
g40
(g44
S'^Dqq=z\xb7?'
p227
tp228
Rp229
sg50
g55
sg23
I205
sg26
I65
sg33
g40
(g69
S'\x01\x00\x00\x00'
p230
tp231
Rp232
sg18
F1.7997091883444227
sg16
F1.1993034746265039
sg29
I0
sg28
g118
sg22
F3.4177025516401045
sg19
I108
sg24
F3.451009499724023
sg21
I110
sa(dp233
g30
I1
sg20
F1.8496941748308018
sg27
F3.7847246180754155
sg32
g40
(g69
S'\x01\x00\x00\x00'
p234
tp235
Rp236
sg39
g49
sg25
I205
sg14
I-18
sg17
I68
sg37
g38
sg15
F266.20848647813546
sg31
g40
(g44
S'\xb7\x84\xdc\xd7\x17\x1d\xb9?'
p237
tp238
Rp239
sg50
g55
sg23
I203
sg26
I62
sg33
g40
(g69
S'\x01\x00\x00\x00'
p240
tp241
Rp242
sg18
F1.8164000588003546
sg16
F1.132589488173835
sg29
I0
sg28
S'l'
p243
sg22
F3.3843549074954353
sg19
I109
sg24
F3.4176508566597477
sg21
I111
sa(dp244
g30
I0
sg20
F2.016545684542507
sg27
F3.9180821978952736
sg32
g40
(g69
S'\x01\x00\x00\x00'
p245
tp246
Rp247
sg39
g49
sg25
I175
sg14
I-19
sg17
I70
sg37
g38
sg15
F270.01162769808434
sg31
g40
(g44
S'*s\x87\x89\xc9\xae\xb8?'
p248
tp249
Rp250
sg50
g55
sg23
I173
sg26
I22
sg33
g40
(g69
S'\xff\xff\xff\xff'
p251
tp252
Rp253
sg18
F1.9832735663512722
sg16
F1.165881404420361
sg29
I0
sg28
g118
sg22
F2.8838913027429953
sg19
I119
sg24
F2.917379366524983
sg21
I121
sa(dp254
g30
I0
sg20
F1.899891807232052
sg27
F3.7348034253227524
sg32
g40
(g69
S'\xff\xff\xff\xff'
p255
tp256
Rp257
sg39
g49
sg25
I164
sg14
I-20
sg17
I66
sg37
g38
sg15
F273.93120831635315
sg31
g40
(g44
S'\x94y\x0f+\xa4\xfb\xb9?'
p258
tp259
Rp260
sg50
g55
sg23
I162
sg26
I18
sg33
g40
(g69
S'\xff\xff\xff\xff'
p261
tp262
Rp263
sg18
F1.8666097900131717
sg16
F1.0994372582645155
sg29
I0
sg28
g118
sg22
F2.70058723265538
sg19
I112
sg24
F2.734056231623981
sg21
I114
sa(dp264
g30
I1
sg20
F1.733063761901576
sg27
F3.16762363439193
sg32
g40
(g69
S'\xff\xff\xff\xff'
p265
tp266
Rp267
sg39
g49
sg25
I162
sg14
I-21
sg17
I71
sg37
g38
sg15
F277.6675160282175
sg31
g40
(g44
S'\xba\xe42\xb2\x86/\xbb?'
p268
tp269
Rp270
sg50
g55
sg23
I160
sg26
I26
sg33
g40
(g69
S'\xff\xff\xff\xff'
p271
tp272
Rp273
sg18
F1.6998220740351826
sg16
F1.1826807976467535
sg29
I0
sg28
S'a'
p274
sg22
F2.6671996257500723
sg19
I102
sg24
F2.7005927321733907
sg21
I104
sa(dp275
g30
I1
sg20
F1.9654670382733457
sg27
F3.033108600822743
sg32
g40
(g69
S'\xff\xff\xff\xff'
p276
tp277
Rp278
sg39
g49
sg25
I153
sg14
I-22
sg17
I70
sg37
g38
sg15
F280.85443471203325
sg31
g40
(g44
S'/\xf5$\xfb\xf9\xd6\xba?'
p279
tp280
Rp281
sg50
g55
sg23
I151
sg26
I3
sg33
g40
(g69
S'\x01\x00\x00\x00'
p282
tp283
Rp284
sg18
F1.9322136182454415
sg16
F1.1649079995113425
sg29
I0
sg28
S'l'
p285
sg22
F2.516027818492148
sg19
I116
sg24
F2.5493970938841812
sg21
I118
sa(dp286
g30
I0
sg20
F1.632904974045232
sg27
F3.6178195801912807
sg32
g40
(g69
S'\xff\xff\xff\xff'
p287
tp288
Rp289
sg39
g49
sg25
I157
sg14
I-23
sg17
I66
sg37
g38
sg15
F283.90580996277276
sg31
g40
(g44
S'g9\x8d\x9al\x89\xba?'
p290
tp291
Rp292
sg50
g55
sg23
I155
sg26
I27
sg33
g40
(g69
S'\xff\xff\xff\xff'
p293
tp294
Rp295
sg18
F1.5997168142930605
sg16
F1.0993016048450954
sg29
I0
sg28
g118
sg22
F2.5836913789389655
sg19
I96
sg24
F2.617059554439038
sg21
I98
sa(dp296
g30
I1
sg20
F1.566322608035989
sg27
F3.5512669113231823
sg32
g40
(g69
S'\xff\xff\xff\xff'
p297
tp298
Rp299
sg39
g49
sg25
I181
sg14
I-24
sg17
I63
sg37
g38
sg15
F287.5251389622572
sg31
g40
(g44
S'\x9f\x075\xd5\xf6\x80\xbb?'
p300
tp301
Rp302
sg50
g55
sg23
I179
sg26
I55
sg33
g40
(g69
S'\x01\x00\x00\x00'
p303
tp304
Rp305
sg18
F1.533021526003722
sg16
F1.0493375163641758
sg29
I0
sg28
S'l'
p306
sg22
F2.984165212663356
sg19
I92
sg24
F3.017530088487547
sg21
I94
sa(dp307
g30
I1
sg20
F1.582863159768749
sg27
F2.733824154303875
sg32
g40
(g69
S'\xff\xff\xff\xff'
p308
tp309
Rp310
sg39
g49
sg25
I136
sg14
I-25
sg17
I63
sg37
g38
sg15
F291.0947638145881
sg31
g40
(g44
S'[\x99\xef\xd4\x84=\xbb?'
p311
tp312
Rp313
sg50
g55
sg23
I134
sg26
I9
sg33
g40
(g69
S'\x01\x00\x00\x00'
p314
tp315
Rp316
sg18
F1.5496141393086873
sg16
F1.0492102954303846
sg29
I0
sg28
S'l'
p317
sg22
F2.2334045452880673
sg19
I93
sg24
F2.266771254246123
sg21
I95
sa(dp318
g30
I1
sg20
F1.6995133708696812
sg27
F3.8512714208918624
sg32
g40
(g69
S'\xff\xff\xff\xff'
p319
tp320
Rp321
sg39
g49
sg25
I211
sg14
I-26
sg17
I63
sg37
g38
sg15
F293.84700677060755
sg31
g40
(g44
S'\xeet9\xe5\x07\x00\xbb?'
p322
tp323
Rp324
sg50
g55
sg23
I209
sg26
I77
sg33
g40
(g69
S'\x01\x00\x00\x00'
p325
tp326
Rp327
sg18
F1.6662034897017293
sg16
F1.0491179045056924
sg29
I0
sg28
S'l'
p328
sg22
F3.4842929835431278
sg19
I100
sg24
F3.5176633588271216
sg21
I102
sa(dp329
g30
I1
sg20
F1.9664925047545694
sg27
F3.30094235134311
sg32
g40
(g69
S'\x01\x00\x00\x00'
p330
tp331
Rp332
sg39
g49
sg25
I173
sg14
I-27
sg17
I72
sg37
g38
sg15
F297.716544841358
sg31
g40
(g44
S'i\x8b\xa5\xf1\x08\xc6\xba?'
p333
tp334
Rp335
sg50
g55
sg23
I171
sg26
I23
sg33
g40
(g69
S'\xff\xff\xff\xff'
p336
tp337
Rp338
sg18
F1.9332790474873036
sg16
F1.1992803768953308
sg29
I0
sg28
S'a'
p339
sg22
F2.850575555465184
sg19
I116
sg24
F2.8839356650714763
sg21
I118
sa(dp340
g30
I1
sg20
F1.783039215952158
sg27
F3.4010938065475784
sg32
g40
(g69
S'\xff\xff\xff\xff'
p341
tp342
Rp343
sg39
g49
sg25
I181
sg14
I-28
sg17
I61
sg37
g38
sg15
F301.0358286352712
sg31
g40
(g44
S'\xcb\x0c\xb9W\xfa\x92\xba?'
p344
tp345
Rp346
sg50
g55
sg23
I179
sg26
I42
sg33
g40
(g69
S'\xff\xff\xff\xff'
p347
tp348
Rp349
sg18
F1.7498019277118146
sg16
F1.0158237884170376
sg29
I0
sg28
S'a'
p350
sg22
F2.9840317590278573
sg19
I105
sg24
F3.0173863691743463
sg21
I107
sa(dp351
g30
I1
sg20
F1.866392744530458
sg27
F3.8180073685362004
sg32
g40
(g69
S'\x01\x00\x00\x00'
p352
tp353
Rp354
sg39
g49
sg25
I210
sg14
I-29
sg17
I72
sg37
g38
sg15
F304.4552627845551
sg31
g40
(g44
S'\x84Q\xe7\xd4\xe3a\xba?'
p355
tp356
Rp357
sg50
g55
sg23
I208
sg26
F66.0
sg33
g40
(g69
S'\x01\x00\x00\x00'
p358
tp359
Rp360
sg18
F1.833069664600771
sg16
F1.199191652238369
sg29
I0
sg28
S'l'
p361
sg22
F3.467733000346925
sg19
I110
sg24
F3.501099342654925
sg21
I112
sa(dp362
g30
I1
sg20
F1.716326329333242
sg27
F3.184255110565573
sg32
g40
(g69
S'\x01\x00\x00\x00'
p363
tp364
Rp365
sg39
g49
sg25
I167
sg14
I-30
sg17
I69
sg37
g38
sg15
F308.29151957132854
sg31
g40
(g44
S'\xc1M\xa5\xa0\x945\xba?'
p366
tp367
Rp368
sg50
g55
sg23
I165
sg26
I32
sg33
g40
(g69
S'\x01\x00\x00\x00'
p369
tp370
Rp371
sg18
F1.6830754757393152
sg16
F1.149394014151767
sg29
I0
sg28
S'l'
p372
sg22
F2.7505824848194607
sg19
I101
sg24
F2.7840078547014855
sg21
I103
sa(dp373
g30
I0
sg20
F1.883126144122798
sg27
F3.5177645488874987
sg32
g40
(g69
S'\xff\xff\xff\xff'
p374
tp375
Rp376
sg39
g49
sg25
I151
sg14
I-31
sg17
I72
sg37
g38
sg15
F311.4940197005635
sg31
g40
(g44
S'\xe0UJ\x8f8\n\xba?'
p377
tp378
Rp379
sg50
g55
sg23
I149
sg26
I6
sg33
g40
(g69
S'\xff\xff\xff\xff'
p380
tp381
Rp382
sg18
F1.8498774902545847
sg16
F1.1993687349604443
sg29
I0
sg28
g118
sg22
F2.4836524793645367
sg19
I111
sg24
F2.517072349844966
sg21
I113
sa(dp383
g30
I0
sg20
F1.4829408488585614
sg27
F3.417854336788878
sg32
g40
(g69
S'\xff\xff\xff\xff'
p384
tp385
Rp386
sg39
g49
sg25
I191
sg14
I-32
sg17
I60
sg37
g38
sg15
F315.0132830364746
sg31
g40
(g44
S'\x1faTg\x7f\xa0\xba?'
p387
tp388
Rp389
sg50
g55
sg23
I189
sg26
I70
sg33
g40
(g69
S'\xff\xff\xff\xff'
p390
tp391
Rp392
sg18
F1.4497240919154137
sg16
F0.9992850697599351
sg29
I1
sg28
S'l'
p393
sg22
F3.1510368870804086
sg19
I87
sg24
F3.184413861716166
sg21
I89
sa(dp394
g30
I1
sg20
F1.7830645134672523
sg27
F3.200802994950209
sg32
g40
(g69
S'\xff\xff\xff\xff'
p395
tp396
Rp397
sg39
g49
sg25
I173
sg14
I-33
sg17
I70
sg37
g38
sg15
F318.4495140124927
sg31
g40
(g44
S'\xee\xcbnX\x93*\xbb?'
p398
tp399
Rp400
sg50
g55
sg23
I171
sg26
I34
sg33
g40
(g69
S'\x01\x00\x00\x00'
p401
tp402
Rp403
sg18
F1.7496061467682011
sg16
F1.1658858039882034
sg29
I0
sg28
S'l'
p404
sg22
F2.850609285524115
sg19
I105
sg24
F2.8839792941580527
sg21
I107
sa(dp405
g30
I1
sg20
F1.9165060517843813
sg27
F3.9180979630327784
sg32
g40
(g69
S'\xff\xff\xff\xff'
p406
tp407
Rp408
sg39
g49
sg25
I211
sg14
I-34
sg17
I67
sg37
g38
sg15
F321.6685906233033
sg31
g40
(g44
S'jH\xe1$r\x05\xbb?'
p409
tp410
Rp411
sg50
g55
sg23
I209
sg26
I64
sg33
g40
(g69
S'\xff\xff\xff\xff'
p412
tp413
Rp414
sg18
F1.8832639973261394
sg16
F1.115973777079489
sg29
I0
sg28
S'a'
p415
sg22
F3.484490964212455
sg19
I113
sg24
F3.517866838898044
sg21
I115
sa(dp416
g30
I0
sg20
F1.8792017272789963
sg27
F3.4138613599934615
sg32
g40
(g69
S'\xff\xff\xff\xff'
p417
tp418
Rp419
sg39
g49
sg25
I145
sg14
I-35
sg17
I70
sg37
g38
sg15
F325.67565523355734
sg31
g40
(g44
S'\xcb\x13\xbe\xba\x08\xe0\xba?'
p420
tp421
Rp422
sg50
g55
sg23
I143
sg26
I0
sg33
g40
(g69
S'\x01\x00\x00\x00'
p423
tp424
Rp425
sg18
F1.8459362083813176
sg16
F1.1621007068897597
sg29
I0
sg28
g118
sg22
F2.379664598731324
sg19
I111
sg24
F2.413010409742128
sg21
I113
sa(dp426
g30
I1
sg20
F1.916523283405695
sg27
F3.4679027504171245
sg32
g40
(g69
S'\x01\x00\x00\x00'
p427
tp428
Rp429
sg39
g49
sg25
I188
sg14
I-36
sg17
I64
sg37
g38
sg15
F329.0910469107912
sg31
g40
(g44
S'fL\x84\xdc\xee\\\xbb?'
p430
tp431
Rp432
sg50
g55
sg23
I186
sg26
F41.0
sg33
g40
(g69
S'\x01\x00\x00\x00'
p433
tp434
Rp435
sg18
F1.8832478655385785
sg16
F1.0659268299932592
sg29
I0
sg28
S'l'
p436
sg22
F3.100906348146964
sg19
I113
sg24
F3.134214762831107
sg21
I115
sa(dp437
g30
I1
sg20
F1.7995860004448332
sg27
F3.8846139322267845
sg32
g40
(g69
S'\xff\xff\xff\xff'
p438
tp439
Rp440
sg39
g49
sg25
I213
sg14
I-37
sg17
I64
sg37
g38
sg15
F332.5772911038366
sg31
g40
(g44
S'\xbct\xc044:\xbb?'
p441
tp442
Rp443
sg50
g55
sg23
I211
sg26
I73
sg33
g40
(g69
S'\xff\xff\xff\xff'
p444
tp445
Rp446
sg18
F1.766346879012417
sg16
F1.0657409481937066
sg29
I0
sg28
S'a'
p447
sg22
F3.517719453317113
sg19
I106
sg24
F3.551007703295909
sg21
I108
sa(dp448
g30
I1
sg20
F1.8330209027044475
sg27
F3.8847770828870125
sg32
g40
(g69
S'\x01\x00\x00\x00'
p449
tp450
Rp451
sg39
g49
sg25
I211
sg14
I-38
sg17
I69
sg37
g38
sg15
F336.4803176050191
sg31
g40
(g44
S'\x95\xb4X\xa1\xa8\x1a\xbb?'
p452
tp453
Rp454
sg50
g55
sg23
I209
sg26
F69.0
sg33
g40
(g69
S'\x01\x00\x00\x00'
p455
tp456
Rp457
sg18
F1.79974695132114
sg16
F1.149224997323472
sg29
I0
sg28
S'l'
p458
sg22
F3.4844018728472292
sg19
I108
sg24
F3.5177649155375548
sg21
I110
sa(dp459
g30
I1
sg20
F1.8330494998954237
sg27
F3.968094681680668
sg32
g40
(g69
S'\xff\xff\xff\xff'
p460
tp461
Rp462
sg39
g49
sg25
I216
sg14
I-39
sg17
I60
sg37
g38
sg15
F340.38331880862825
sg31
g40
(g44
S'\xd8\xae`9-\xfd\xba?'
p463
tp464
Rp465
sg50
g55
sg23
I214
sg26
I74
sg33
g40
(g69
S'\x01\x00\x00\x00'
p466
tp467
Rp468
sg18
F1.799800479435362
sg16
F0.999215776566416
sg29
I0
sg28
S'l'
p469
sg22
F3.567833493812941
sg19
I108
sg24
F3.6011279764934443
sg21
I110
sa(dp470
g30
I0
sg20
F1.883555835520383
sg27
F4.719240311475005
sg32
g40
(g69
S'\xff\xff\xff\xff'
p471
tp472
Rp473
sg39
g49
sg25
I223
sg14
I1
sg17
I72
sg37
g38
sg15
F395.1087944114115
sg31
g40
(g44
S'\xa1\xfaq\x1b\x82`\xbc?'
p474
tp475
Rp476
sg50
g55
sg23
I221
sg26
I78
sg33
g40
(g69
S'\x01\x00\x00\x00'
p477
tp478
Rp479
sg18
F1.850259886297863
sg16
F1.199810525169596
sg29
I0
sg28
g118
sg22
F3.685031818051357
sg19
I111
sg24
F3.718386428197846
sg21
I113
sa(dp480
g30
I1
sg20
F1.6999144650180824
sg27
F2.9675997300073504
sg32
g40
(g69
S'\x01\x00\x00\x00'
p481
tp482
Rp483
sg39
g49
sg25
I158
sg14
I2
sg17
I60
sg37
g38
sg15
F399.8294363527093
sg31
g40
(g44
S'\xa1\xfaq\x1b\x82`\xbc?'
p484
tp485
Rp486
sg50
g55
sg23
I156
sg26
I24
sg33
g40
(g69
S'\xff\xff\xff\xff'
p487
tp488
Rp489
sg18
F1.6666661778581329
sg16
F0.9994779176777229
sg29
I0
sg28
S'a'
p490
sg22
F2.600732015212998
sg19
I100
sg24
F2.63401733210776
sg21
I102
sa(dp491
g30
I1
sg20
F1.616410617774818
sg27
F3.367852851981297
sg32
g40
(g69
S'\xff\xff\xff\xff'
p492
tp493
Rp494
sg39
g49
sg25
I182
sg14
I3
sg17
I64
sg37
g38
sg15
F402.81516817910597
sg31
g40
(g44
S'\xcat\xe6J\x94\x06\xbb?'
p495
tp496
Rp497
sg50
g55
sg23
I180
sg26
I53
sg33
g40
(g69
S'\xff\xff\xff\xff'
p498
tp499
Rp500
sg18
F1.5831381329335272
sg16
F1.0660518511431292
sg29
I0
sg28
S'a'
p501
sg22
F3.0008993455558084
sg19
I95
sg24
F3.0343071171664633
sg21
I97
sa(dp502
g30
I1
sg20
F1.6998418720904738
sg27
F3.4680578352417797
sg32
g40
(g69
S'\x01\x00\x00\x00'
p503
tp504
Rp505
sg39
g49
sg25
I191
sg14
I4
sg17
I65
sg37
g38
sg15
F406.20114286174066
sg31
g40
(g44
S'\xa1\xfaq\x1b\x82`\xbc?'
p506
tp507
Rp508
sg50
g55
sg23
I189
sg26
I57
sg33
g40
(g69
S'\x01\x00\x00\x00'
p509
tp510
Rp511
sg18
F1.666622915363405
sg16
F1.0828178808442317
sg29
I0
sg28
S'l'
p512
sg22
F3.1510332207544707
sg19
I100
sg24
F3.1843889307929203
sg21
I102
sa(dp513
g30
I1
sg20
F1.49964381812606
sg27
F3.5513831332791597
sg32
g40
(g69
S'\xff\xff\xff\xff'
p514
tp515
Rp516
sg39
g49
sg25
I153
sg14
I5
sg17
I60
sg37
g38
sg15
F409.68721510493197
sg31
g40
(g44
S'\x00\x00\x00\x00\x00\x00\x00\x00'
p517
tp518
Rp519
sg50
g55
sg23
I151
sg26
F31.0
sg33
g40
(g69
S'\xff\xff\xff\xff'
p520
tp521
Rp522
sg18
F1.4663716999348253
sg16
F0.9992993684136309
sg29
I0
sg28
g118
sg22
F2.5172780297580175
sg19
I88
sg24
F2.5506036760634743
sg21
I90
sa(dp523
g30
I0
sg20
F1.6663879049592651
sg27
F4.351891576952767
sg32
g40
(g69
S'\xff\xff\xff\xff'
p524
tp525
Rp526
sg39
g49
sg25
I201
sg14
I6
sg17
I69
sg37
g38
sg15
F413.23991810932057
sg31
g40
(g44
S'\xf3\xeeZz\xa6\xac\xb9?'
p527
tp528
Rp529
sg50
g55
sg23
I199
sg26
I69
sg33
g40
(g69
S'\xff\xff\xff\xff'
p530
tp531
Rp532
sg18
F1.6331495168269612
sg16
F1.149453408375848
sg29
I0
sg28
g118
sg22
F3.317844034463633
sg19
I98
sg24
F3.351158315257635
sg21
I100
sa(dp533
g30
I1
sg20
F2.000210812781006
sg27
F3.58489759452641
sg32
g40
(g69
S'\x01\x00\x00\x00'
p534
tp535
Rp536
sg39
g49
sg25
I194
sg14
I7
sg17
I70
sg37
g38
sg15
F417.5932611779426
sg31
g40
(g44
S'\xcat\xe6J\x94\x06\xbb?'
p537
tp538
Rp539
sg50
g55
sg23
I192
sg26
I42
sg33
g40
(g69
S'\x01\x00\x00\x00'
p540
tp541
Rp542
sg18
F1.9669463938334957
sg16
F1.1662462021922693
sg29
I0
sg28
S'l'
p543
sg22
F3.201259817054961
sg19
I118
sg24
F3.2346419245004654
sg21
I120
sa(dp544
g30
I1
sg20
F1.5662008866202086
sg27
F3.2676988303428516
sg32
g40
(g69
S'\xff\xff\xff\xff'
p545
tp546
Rp547
sg39
g49
sg25
I174
sg14
I8
sg17
I63
sg37
g38
sg15
F421.1962168093887
sg31
g40
(g44
S'\xa1\xfaq\x1b\x82`\xbc?'
p548
tp549
Rp550
sg50
g55
sg23
I172
sg26
I48
sg33
g40
(g69
S'\xff\xff\xff\xff'
p551
tp552
Rp553
sg18
F1.53302519232966
sg16
F1.049293520685751
sg29
I0
sg28
S'a'
p554
sg22
F2.867355517228134
sg19
I92
sg24
F2.9007159934262745
sg21
I94
sa(dp555
g30
I1
sg20
F1.7832338968873955
sg27
F3.5347578898072243
sg32
g40
(g69
S'\x01\x00\x00\x00'
p556
tp557
Rp558
sg39
g49
sg25
I208
sg14
I9
sg17
I60
sg37
g38
sg15
F424.4821423268295
sg31
g40
(g44
S'\xa1\xfaq\x1b\x82`\xbc?'
p559
tp560
Rp561
sg50
g55
sg23
I206
sg26
I69
sg33
g40
(g69
S'\x01\x00\x00\x00'
p562
tp563
Rp564
sg18
F1.7500024747569114
sg16
F0.9993220994947478
sg29
I0
sg28
S'l'
p565
sg22
F3.4345375079428777
sg19
I105
sg24
F3.4678994507412426
sg21
I107
sa(dp566
g30
I1
sg20
F1.8833090929547325
sg27
F3.167700260237325
sg32
g40
(g69
S'\x01\x00\x00\x00'
p567
tp568
Rp569
sg39
g49
sg25
I159
sg14
I10
sg17
I63
sg37
g38
sg15
F428.0348801612272
sg31
g40
(g44
S'\xcat\xe6J\x94\x06\xbb?'
p570
tp571
Rp572
sg50
g55
sg23
I157
sg26
I14
sg33
g40
(g69
S'\xff\xff\xff\xff'
p573
tp574
Rp575
sg18
F1.8499988451367244
sg16
F1.0493936109123752
sg29
I0
sg28
S'a'
p576
sg22
F2.61735872522695
sg19
I111
sg24
F2.650692437426187
sg21
I113
sa(dp577
g30
I1
sg20
F1.7331550529343076
sg27
F3.0843397655989975
sg32
g40
(g69
S'\x01\x00\x00\x00'
p578
tp579
Rp580
sg39
g49
sg25
I163
sg14
I11
sg17
I72
sg37
g38
sg15
F431.22075028077234
sg31
g40
(g44
S'\xcat\xe6J\x94\x06\xbb?'
p581
tp582
Rp583
sg50
g55
sg23
I161
sg26
I27
sg33
g40
(g69
S'\xff\xff\xff\xff'
p584
tp585
Rp586
sg18
F1.699865336471703
sg16
F1.1994768910808489
sg29
I0
sg28
S'a'
p587
sg22
F2.683967855235096
sg19
I102
sg24
F2.7173089000280015
sg21
I104
sa(dp588
g30
I1
sg20
F1.966676186886616
sg27
F3.184362166794017
sg32
g40
(g69
S'\x01\x00\x00\x00'
p589
tp590
Rp591
sg39
g49
sg25
I170
sg14
I12
sg17
I68
sg37
g38
sg15
F434.3231733808643
sg31
g40
(g44
S'\xcat\xe6J\x94\x06\xbb?'
p592
tp593
Rp594
sg50
g55
sg23
I168
sg26
I20
sg33
g40
(g69
S'\x01\x00\x00\x00'
p595
tp596
Rp597
sg18
F1.9333791377721354
sg16
F1.1327064434299245
sg29
I0
sg28
S'l'
p598
sg22
F2.8008483105222695
sg19
I116
sg24
F2.8340800993028097
sg21
I118
sa(dp599
g30
I1
sg20
F1.8166127047152258
sg27
F2.7673796781455167
sg32
g40
(g69
S'\x01\x00\x00\x00'
p600
tp601
Rp602
sg39
g49
sg25
I141
sg14
I13
sg17
I68
sg37
g38
sg15
F437.52568414236885
sg31
g40
(g44
S'\x1ci\xcf\xa9\xb8R\xb8?'
p603
tp604
Rp605
sg50
g55
sg23
I139
sg26
I0
sg33
g40
(g69
S'\x01\x00\x00\x00'
p606
tp607
Rp608
sg18
F1.7832643272704445
sg16
F1.1327647377038375
sg29
I0
sg28
S'l'
p609
sg22
F2.317063844006043
sg19
I107
sg24
F2.3503689589560963
sg21
I109
sa(dp610
g30
I1
sg20
F1.5330354580073617
sg27
F2.533962667454034
sg32
g40
(g69
S'\xff\xff\xff\xff'
p611
tp612
Rp613
sg39
g49
sg25
I130
sg14
I14
sg17
I64
sg37
g38
sg15
F440.31115412100917
sg31
g40
(g44
S'\xf3\xeeZz\xa6\xac\xb9?'
p614
tp615
Rp616
sg50
g55
sg23
I128
sg26
I6
sg33
g40
(g69
S'\x01\x00\x00\x00'
p617
tp618
Rp619
sg18
F1.4997310762992129
sg16
F1.0660540509270504
sg29
I0
sg28
S'l'
p620
sg22
F2.133575358602684
sg19
I90
sg24
F2.16692446928937
sg21
I92
sa(dp621
g30
I0
sg20
F1.6164502138854004
sg27
F3.301139965362381
sg32
g40
(g69
S'\x01\x00\x00\x00'
p622
tp623
Rp624
sg39
g49
sg25
I138
sg14
I15
sg17
I64
sg37
g38
sg15
F442.8631550273276
sg31
g40
(g44
S'\xf3\xeeZz\xa6\xac\xb9?'
p625
tp626
Rp627
sg50
g55
sg23
I136
sg26
I9
sg33
g40
(g69
S'\x01\x00\x00\x00'
p628
tp629
Rp630
sg18
F1.5832004601834342
sg16
F1.0661999700241722
sg29
I0
sg28
g118
sg22
F2.267052093462553
sg19
I95
sg24
F2.300412936368957
sg21
I97
sa(dp631
g30
I1
sg20
F1.5832000935915858
sg27
F3.71834829862928
sg32
g40
(g69
S'\xff\xff\xff\xff'
p632
tp633
Rp634
sg39
g49
sg25
I163
sg14
I16
sg17
I64
sg37
g38
sg15
F446.16560203174595
sg31
g40
(g44
S'\x00\x00\x00\x00\x00\x00\x00\x00'
p635
tp636
Rp637
sg50
g55
sg23
I161
sg26
F36.0
sg33
g40
(g69
S'\xff\xff\xff\xff'
p638
tp639
Rp640
sg18
F1.5499096438288689
sg16
F1.0661779721849598
sg29
I0
sg28
g118
sg22
F2.6842010325053707
sg19
I93
sg24
F2.717559675569646
sg21
I95
sa(dp641
g30
I1
sg20
F1.5998224040376954
sg27
F3.067750451969914
sg32
g40
(g69
S'\xff\xff\xff\xff'
p642
tp643
Rp644
sg39
g49
sg25
I166
sg14
I17
sg17
I60
sg37
g38
sg15
F449.8852500367793
sg31
g40
(g44
S'\xcat\xe6J\x94\x06\xbb?'
p645
tp646
Rp647
sg50
g55
sg23
I164
sg26
I38
sg33
g40
(g69
S'\x01\x00\x00\x00'
p648
tp649
Rp650
sg18
F1.5666261784499511
sg16
F0.9994716849178076
sg29
I0
sg28
S'l'
p651
sg22
F2.7341607214766555
sg19
I94
sg24
F2.7675189979490824
sg21
I96
sa(dp652
g30
I1
sg20
F1.649761194945313
sg27
F3.284463026910089
sg32
g40
(g69
S'\xff\xff\xff\xff'
p653
tp654
Rp655
sg39
g49
sg25
I137
sg14
I18
sg17
I63
sg37
g38
sg15
F452.9711036212393
sg31
g40
(g44
S'\x00\x00\x00\x00\x00\x00\x00\x00'
p656
tp657
Rp658
sg50
g55
sg23
I135
sg26
F6.0
sg33
g40
(g69
S'\xff\xff\xff\xff'
p659
tp660
Rp661
sg18
F1.6165121744852513
sg16
F1.0493998435558751
sg29
I0
sg28
g118
sg22
F2.250372588634491
sg19
I97
sg24
F2.283696401747875
sg21
I99
sa(dp662
g30
I0
sg20
F1.8166614666115493
sg27
F3.4514010614948347
sg32
g40
(g69
S'\x01\x00\x00\x00'
p663
tp664
Rp665
sg39
g49
sg25
I147
sg14
I19
sg17
I61
sg37
g38
sg15
F456.25687002093764
sg31
g40
(g44
S'\xcat\xe6J\x94\x06\xbb?'
p666
tp667
Rp668
sg50
g55
sg23
I145
sg26
I6
sg33
g40
(g69
S'\xff\xff\xff\xff'
p669
tp670
Rp671
sg18
F1.7834267447469756
sg16
F1.0161805202369578
sg29
I1
sg28
g118
sg22
F2.417224098346196
sg19
I107
sg24
F2.450619771145284
sg21
I109
sa(dp672
g30
I1
sg20
F1.9334590632934123
sg27
F4.619004164589569
sg32
g40
(g69
S'\x01\x00\x00\x00'
p673
tp674
Rp675
sg39
g49
sg25
I217
sg14
I20
sg17
I66
sg37
g38
sg15
F459.70957262208685
sg31
g40
(g44
S'\x00\x00\x00\x00\x00\x00\x00\x00'
p676
tp677
Rp678
sg50
g55
sg23
I215
sg26
F69.0
sg33
g40
(g69
S'\x01\x00\x00\x00'
p679
tp680
Rp681
sg18
F1.900073656172026
sg16
F1.0994713549735025
sg29
I0
sg28
g118
sg22
F3.58479713764973
sg19
I114
sg24
F3.6182184746139683
sg21
I116
sa(dp682
g30
I1
sg20
F1.7499148499337025
sg27
F2.967684421746526
sg32
g40
(g69
S'\xff\xff\xff\xff'
p683
tp684
Rp685
sg39
g49
sg25
I160
sg14
I21
sg17
I72
sg37
g38
sg15
F464.329919388867
sg31
g40
(g44
S'\x1ci\xcf\xa9\xb8R\xb8?'
p686
tp687
Rp688
sg50
g55
sg23
I158
sg26
I23
sg33
g40
(g69
S'\x01\x00\x00\x00'
p689
tp690
Rp691
sg18
F1.7165727052488364
sg16
F1.1995153872994706
sg29
I0
sg28
S'l'
p692
sg22
F2.63394950539805
sg19
I103
sg24
F2.6673847743077204
sg21
I105
sa(dp693
g30
I0
sg20
F1.6163816539337859
sg27
F3.1677611209452152
sg32
g40
(g69
S'\xff\xff\xff\xff'
p694
tp695
Rp696
sg39
g49
sg25
I130
sg14
I22
sg17
I66
sg37
g38
sg15
F467.3156482822378
sg31
g40
(g44
S'\xcat\xe6J\x94\x06\xbb?'
p697
tp698
Rp699
sg50
g55
sg23
I128
sg26
I1
sg33
g40
(g69
S'\x01\x00\x00\x00'
p700
tp701
Rp702
sg18
F1.5830871712532826
sg16
F1.0994288257788867
sg29
I0
sg28
g118
sg22
F2.1335445616277866
sg19
I95
sg24
F2.1668878062046133
sg21
I97
sa(dp703
g30
I0
sg20
F1.916730796569027
sg27
F4.518871040898375
sg32
g40
(g69
S'\xff\xff\xff\xff'
p704
tp705
Rp706
sg39
g49
sg25
I211
sg14
I23
sg17
I64
sg37
g38
sg15
F470.4847047100193
sg31
g40
(g44
S'\xf3\xeeZz\xa6\xac\xb9?'
p707
tp708
Rp709
sg50
g55
sg23
I209
sg26
I64
sg33
g40
(g69
S'\x01\x00\x00\x00'
p710
tp711
Rp712
sg18
F1.8835048738401383
sg16
F1.0661596406134777
sg29
I1
sg28
g118
sg22
F3.484733307210263
sg19
I113
sg24
F3.517990393564105
sg21
I115
sa(dp713
g30
I0
sg20
F2.0501811339636333
sg27
F3.6181847445550375
sg32
g40
(g69
S'\x01\x00\x00\x00'
p714
tp715
Rp716
sg39
g49
sg25
I157
sg14
I24
sg17
I72
sg37
g38
sg15
F475.004871424404
sg31
g40
(g44
S'\xcat\xe6J\x94\x06\xbb?'
p717
tp718
Rp719
sg50
g55
sg23
I155
sg26
I2
sg33
g40
(g69
S'\xff\xff\xff\xff'
p720
tp721
Rp722
sg18
F2.016931746911723
sg16
F1.1996591066126712
sg29
I0
sg28
g118
sg22
F2.584041144757066
sg19
I121
sg24
F2.617406753823161
sg21
I123
sa(dp723
g30
I1
sg20
F1.833364435879048
sg27
F3.6015261376742274
sg32
g40
(g69
S'\x01\x00\x00\x00'
p724
tp725
Rp726
sg39
g49
sg25
I195
sg14
I25
sg17
I72
sg37
g38
sg15
F478.6243668743409
sg31
g40
(g44
S'\xcat\xe6J\x94\x06\xbb?'
p727
tp728
Rp729
sg50
g55
sg23
I193
sg26
I53
sg33
g40
(g69
S'\xff\xff\xff\xff'
p730
tp731
Rp732
sg18
F1.800113215635065
sg16
F1.1996411417494528
sg29
I0
sg28
S'a'
p733
sg22
F3.2178876269608736
sg19
I108
sg24
F3.2512440702412277
sg21
I110
sa(dp734
g30
I0
sg20
F1.716565006005112
sg27
F3.868319389759563
sg32
g40
(g69
S'\x01\x00\x00\x00'
p735
tp736
Rp737
sg39
g49
sg25
I177
sg14
I26
sg17
I63
sg37
g38
sg15
F482.24394774925895
sg31
g40
(g44
S'\xf3\xeeZz\xa6\xac\xb9?'
p738
tp739
Rp740
sg50
g55
sg23
I175
sg26
I42
sg33
g40
(g69
S'\xff\xff\xff\xff'
p741
tp742
Rp743
sg18
F1.6833196518709883
sg16
F1.04938041215064
sg29
I0
sg28
S'l'
p744
sg22
F2.917574414110277
sg19
I101
sg24
F2.9510049168602563
sg21
I103
sa(dp745
g30
I1
sg20
F1.5162529298686422
sg27
F3.467811459384393
sg32
g40
(g69
S'\xff\xff\xff\xff'
p746
tp747
Rp748
sg39
g49
sg25
I194
sg14
I27
sg17
I63
sg37
g38
sg15
F486.1303387412918
sg31
g40
(g44
S'\xcat\xe6J\x94\x06\xbb?'
p749
tp750
Rp751
sg50
g55
sg23
I192
sg26
I71
sg33
g40
(g69
S'\x01\x00\x00\x00'
p752
tp753
Rp754
sg18
F1.4830042760586366
sg16
F1.049330917012412
sg29
I0
sg28
S'l'
p755
sg22
F3.200930215884
sg19
I89
sg24
F3.234302424301859
sg21
I91
sa(dp756
g30
I1
sg20
F1.716531276004389
sg27
F3.3678902483079582
sg32
g40
(g69
S'\xff\xff\xff\xff'
p757
tp758
Rp759
sg39
g49
sg25
I184
sg14
I28
sg17
I63
sg37
g38
sg15
F489.6163262926857
sg31
g40
(g44
S'\xcat\xe6J\x94\x06\xbb?'
p760
tp761
Rp762
sg50
g55
sg23
I182
sg26
I49
sg33
g40
(g69
S'\xff\xff\xff\xff'
p763
tp764
Rp765
sg18
F1.6832562247291207
sg16
F1.0494024099898525
sg29
I0
sg28
S'a'
p766
sg22
F3.0343071171664633
sg19
I101
sg24
F3.067766583757475
sg21
I103
sa(dp767
g30
I1
sg20
F1.833324839710258
sg27
F3.5180556538398378
sg32
g40
(g69
S'\xff\xff\xff\xff'
p768
tp769
Rp770
sg39
g49
sg25
I196
sg14
I29
sg17
I69
sg37
g38
sg15
F493.0023310391116
sg31
g40
(g44
S'\xf3\xeeZz\xa6\xac\xb9?'
p771
tp772
Rp773
sg50
g55
sg23
I194
sg26
I54
sg33
g40
(g69
S'\x01\x00\x00\x00'
p774
tp775
Rp776
sg18
F1.8000054261065088
sg16
F1.1495391999487765
sg29
I0
sg28
S'l'
p777
sg22
F3.234434044745285
sg19
I108
sg24
F3.2678645474952646
sg21
I110
sa(dp778
g30
I0
sg20
F1.866558461682871
sg27
F4.518679659580812
sg32
g40
(g69
S'\x01\x00\x00\x00'
p779
tp780
Rp781
sg39
g49
sg25
I213
sg14
I30
sg17
I65
sg37
g38
sg15
F496.53850192425307
sg31
g40
(g44
S'x\x80\xfd\xebo\xba\xbd?'
p782
tp783
Rp784
sg50
g55
sg23
I211
sg26
I69
sg33
g40
(g69
S'\xff\xff\xff\xff'
p785
tp786
Rp787
sg18
F1.8332797441398725
sg16
F1.0827115579159
sg29
I0
sg28
S'l'
p788
sg22
F3.5180090917274356
sg19
I110
sg24
F3.5512922088382766
sg21
I112
sa(dp789
g30
I1
sg20
F1.7994712449726649
sg27
F3.8678281043539755
sg32
g40
(g69
S'\x01\x00\x00\x00'
p790
tp791
Rp792
sg39
g49
sg25
I213
sg14
I31
sg17
I60
sg37
g38
sg15
F501.07549479586305
sg31
g40
(g44
S'\xcat\xe6J\x94\x06\xbb?'
p793
tp794
Rp795
sg50
g55
sg23
I211
sg26
I73
sg33
g40
(g69
S'\x01\x00\x00\x00'
p796
tp797
Rp798
sg18
F1.766181161860004
sg16
F0.9989026737748645
sg29
I0
sg28
S'l'
p799
sg22
F3.517569501302205
sg19
I106
sg24
F3.5508977139834315
sg21
I108
sa(dp800
g30
I1
sg20
F1.9166890006163158
sg27
F3.2010435048141517
sg32
g40
(g69
S'\xff\xff\xff\xff'
p801
tp802
Rp803
sg39
g49
sg25
I176
sg14
I32
sg17
I70
sg37
g38
sg15
F504.96172886987915
sg31
g40
(g44
S'\xf3\xeeZz\xa6\xac\xb9?'
p804
tp805
Rp806
sg50
g55
sg23
I174
sg26
I29
sg33
g40
(g69
S'\x01\x00\x00\x00'
p807
tp808
Rp809
sg18
F1.8833219250082038
sg16
F1.1661959737539291
sg29
I0
sg28
S'l'
p810
sg22
F2.9007966522476636
sg19
I113
sg24
F2.9342242219136097
sg21
I115
sa(dp811
g30
I1
sg20
F1.7164253196679056
sg27
F2.8007577527314425
sg32
g40
(g69
S'\x01\x00\x00\x00'
p812
tp813
Rp814
sg39
g49
sg25
I146
sg14
I33
sg17
I62
sg37
g38
sg15
F508.18095396622084
sg31
g40
(g44
S'\xa1\xfaq\x1b\x82`\xbc?'
p815
tp816
Rp817
sg50
g55
sg23
I144
sg26
I11
sg33
g40
(g69
S'\x01\x00\x00\x00'
p818
tp819
Rp820
sg18
F1.6832048964570276
sg16
F1.0327108063502237
sg29
I0
sg28
S'l'
p821
sg22
F2.400355045334436
sg19
I101
sg24
F2.4337624503532425
sg21
I103
sa(dp822
g30
I1
sg20
F1.8833457559812814
sg27
F3.351261338510085
sg32
g40
(g69
S'\x01\x00\x00\x00'
p823
tp824
Rp825
sg39
g49
sg25
I186
sg14
I34
sg17
I69
sg37
g38
sg15
F510.99976755602984
sg31
g40
(g44
S'\xcat\xe6J\x94\x06\xbb?'
p826
tp827
Rp828
sg50
g55
sg23
I184
sg26
I41
sg33
g40
(g69
S'\x01\x00\x00\x00'
p829
tp830
Rp831
sg18
F1.8500831702258438
sg16
F1.1495391999487765
sg29
I0
sg28
S'l'
p832
sg22
F3.0676151651423424
sg19
I111
sg24
F3.100931645720266
sg21
I113
sa(dp833
g30
I1
sg20
F1.5663556048530154
sg27
F3.1509848255082034
sg32
g40
(g69
S'\xff\xff\xff\xff'
p834
tp835
Rp836
sg39
g49
sg25
I171
sg14
I35
sg17
I60
sg37
g38
sg15
F514.3690891313017
sg31
g40
(g44
S'\xf3\xeeZz\xa6\xac\xb9?'
p837
tp838
Rp839
sg50
g55
sg23
I169
sg26
I45
sg33
g40
(g69
S'\x01\x00\x00\x00'
p840
tp841
Rp842
sg18
F1.5331205163383856
sg16
F0.9993004683055915
sg29
I0
sg28
S'l'
p843
sg22
F2.8174020610167645
sg19
I92
sg24
F2.850833663600497
sg21
I94
sa(dp844
g30
I1
sg20
F1.9500758742797188
sg27
F3.6682338914833963
sg32
g40
(g69
S'\xff\xff\xff\xff'
p845
tp846
Rp847
sg39
g49
sg25
I160
sg14
I36
sg17
I71
sg37
g38
sg15
F517.5381503253011
sg31
g40
(g44
S'\x00\x00\x00\x00\x00\x00\x00\x00'
p848
tp849
Rp850
sg50
g55
sg23
I158
sg26
F11.0
sg33
g40
(g69
S'\xff\xff\xff\xff'
p851
tp852
Rp853
sg18
F1.9168396859313361
sg16
F1.1828780450159684
sg29
I0
sg28
g118
sg22
F2.6340132991899736
sg19
I115
sg24
F2.6673961399355903
sg21
I117
sa(dp854
g30
I0
sg20
F1.7832668937044218
sg27
F3.4346962591516785
sg32
g40
(g69
S'\x01\x00\x00\x00'
p855
tp856
Rp857
sg39
g49
sg25
I185
sg14
I37
sg17
I72
sg37
g38
sg15
F521.2076886893483
sg31
g40
(g44
S'\xcat\xe6J\x94\x06\xbb?'
p858
tp859
Rp860
sg50
g55
sg23
I183
sg26
I46
sg33
g40
(g69
S'\x01\x00\x00\x00'
p861
tp862
Rp863
sg18
F1.7499647117801942
sg16
F1.1996415083413012
sg29
I1
sg28
S'l'
p864
sg22
F3.050996521022171
sg19
I105
sg24
F3.0843522310606204
sg21
I107
sa(dp865
g30
I1
sg20
F1.8164818175137043
sg27
F3.7180773583822884
sg32
g40
(g69
S'\x01\x00\x00\x00'
p866
tp867
Rp868
sg39
g49
sg25
I204
sg14
I38
sg17
I64
sg37
g38
sg15
F524.6604440853116
sg31
g40
(g44
S'\xcat\xe6J\x94\x06\xbb?'
p869
tp870
Rp871
sg50
g55
sg23
I202
sg26
I63
sg33
g40
(g69
S'\xff\xff\xff\xff'
p872
tp873
Rp874
sg18
F1.7832313305116259
sg16
F1.0659117981558666
sg29
I0
sg28
S'a'
p875
sg22
F3.367711332452018
sg19
I107
sg24
F3.4010996726574376
sg21
I109
sa(dp876
g30
I1
sg20
F1.5495921414694749
sg27
F3.4511092233587988
sg32
g40
(g69
S'\x01\x00\x00\x00'
p877
tp878
Rp879
sg39
g49
sg25
I184
sg14
I39
sg17
I63
sg37
g38
sg15
F528.3967008354375
sg31
g40
(g44
S'\x1ci\xcf\xa9\xb8R\xb8?'
p880
tp881
Rp882
sg50
g55
sg23
I182
sg26
I59
sg33
g40
(g69
S'\xff\xff\xff\xff'
p883
tp884
Rp885
sg18
F1.516341654525604
sg16
F1.0493191847926937
sg29
I0
sg28
S'a'
p886
sg22
F3.0342004275880754
sg19
I91
sg24
F3.067566403246019
sg21
I93
sa(dp887
g30
I1
sg20
F1.9499900826485828
sg27
F3.217738041479606
sg32
g40
(g69
S'\x01\x00\x00\x00'
p888
tp889
Rp890
sg39
g49
sg25
I170
sg14
I40
sg17
I65
sg37
g38
sg15
F531.8660902740667
sg31
g40
(g44
S'\xcat\xe6J\x94\x06\xbb?'
p891
tp892
Rp893
sg50
g55
sg23
I168
sg26
I21
sg33
g40
(g69
S'\x01\x00\x00\x00'
p894
tp895
Rp896
sg18
F1.9167758920812048
sg16
F1.0826979925623164
sg29
I0
sg28
S'l'
p897
sg22
F2.8007375879678875
sg19
I115
sg24
F2.8340815658448264
sg21
I117
sa(dp898
g30
I1
sg20
F1.649736630730331
sg27
F3.8348573567927815
sg32
g40
(g69
S'\xff\xff\xff\xff'
p899
tp900
Rp901
sg39
g49
sg25
I170
sg14
I41
sg17
I67
sg37
g38
sg15
F535.1019875426427
sg31
g40
(g44
S'\x00\x00\x00\x00\x00\x00\x00\x00'
p902
tp903
Rp904
sg50
g55
sg23
I168
sg26
F39.0
sg33
g40
(g69
S'\xff\xff\xff\xff'
p905
tp906
Rp907
sg18
F1.6164417813997716
sg16
F1.1160313381697051
sg29
I0
sg28
g118
sg22
F2.800687359587755
sg19
I97
sg24
F2.8341332607669756
sg21
I99
sa(dp908
g30
I1
sg20
F1.8166607333696447
sg27
F3.117855693330057
sg32
g40
(g69
S'\xff\xff\xff\xff'
p909
tp910
Rp911
sg39
g49
sg25
I172
sg14
I42
sg17
I65
sg37
g38
sg15
F538.9381471722736
sg31
g40
(g44
S'\x1ci\xcf\xa9\xb8R\xb8?'
p912
tp913
Rp914
sg50
g55
sg23
I170
sg26
I31
sg33
g40
(g69
S'\x01\x00\x00\x00'
p915
tp916
Rp917
sg18
F1.7833746831747703
sg16
F1.0828725088504143
sg29
I0
sg28
S'l'
p918
sg22
F2.834260848350823
sg19
I107
sg24
F2.8676253575249575
sg21
I109
sa(dp919
g30
I0
sg20
F1.899950468156021
sg27
F3.45128227310488
sg32
g40
(g69
S'\xff\xff\xff\xff'
p920
tp921
Rp922
sg39
g49
sg25
I204
sg14
I43
sg17
I62
sg37
g38
sg15
F542.0741089311778
sg31
g40
(g44
S'x\x80\xfd\xebo\xba\xbd?'
p923
tp924
Rp925
sg50
g55
sg23
I202
sg26
I58
sg33
g40
(g69
S'\xff\xff\xff\xff'
p926
tp927
Rp928
sg18
F1.866707680397667
sg16
F1.0327192388358526
sg29
I0
sg28
S'l'
p929
sg22
F3.3678766829543747
sg19
I112
sg24
F3.401237159210723
sg21
I114
sa(dp930
g30
I1
sg20
F1.9500362781109288
sg27
F4.585536632104777
sg32
g40
(g69
S'\x01\x00\x00\x00'
p931
tp932
Rp933
sg39
g49
sg25
I215
sg14
I44
sg17
I65
sg37
g38
sg15
F545.5434441084508
sg31
g40
(g44
S'\x00\x00\x00\x00\x00\x00\x00\x00'
p934
tp935
Rp936
sg50
g55
sg23
I213
sg26
F66.0
sg33
g40
(g69
S'\x01\x00\x00\x00'
p937
tp938
Rp939
sg18
F1.9167934904107824
sg16
F1.0828021157649346
sg29
I0
sg28
g118
sg22
F3.5514058644184843
sg19
I115
sg24
F3.584768907050602
sg21
I117
sa(dp940
g30
I1
sg20
F1.6666764435358346
sg27
F3.0511857026140206
sg32
g40
(g69
S'\xff\xff\xff\xff'
p941
tp942
Rp943
sg39
g49
sg25
I163
sg14
I45
sg17
I66
sg37
g38
sg15
F572.3807322278735
sg31
g40
(g44
S'\xa1\xfaq\x1b\x82`\xbc?'
p944
tp945
Rp946
sg50
g55
sg23
I161
sg26
I31
sg33
g40
(g69
S'\xff\xff\xff\xff'
p947
tp948
Rp949
sg18
F1.6333859937731177
sg16
F1.0996909668901935
sg29
I0
sg28
S'a'
p950
sg22
F2.6842637264053337
sg19
I98
sg24
F2.7175552760600112
sg21
I100
sa(dp951
g30
I0
sg20
F1.6830923407687806
sg27
F4.351959403720684
sg32
g40
(g69
S'\xff\xff\xff\xff'
p952
tp953
Rp954
sg39
g49
sg25
I201
sg14
I46
sg17
I68
sg37
g38
sg15
F575.4502120776451
sg31
g40
(g44
S'\xcat\xe6J\x94\x06\xbb?'
p955
tp956
Rp957
sg50
g55
sg23
I199
sg26
I68
sg33
g40
(g69
S'\xff\xff\xff\xff'
p958
tp959
Rp960
sg18
F1.6498191226855852
sg16
F1.132758871652186
sg29
I0
sg28
g118
sg22
F3.3178367018699646
sg19
I99
sg24
F3.3511751802871004
sg21
I101
sa(dp961
g30
I1
sg20
F1.8499009546940215
sg27
F3.401204895693809
sg32
g40
(g69
S'\x01\x00\x00\x00'
p962
tp963
Rp964
sg39
g49
sg25
I186
sg14
I47
sg17
I64
sg37
g38
sg15
F579.8034935522592
sg31
g40
(g44
S'\xa1\xfaq\x1b\x82`\xbc?'
p965
tp966
Rp967
sg50
g55
sg23
I184
sg26
I43
sg33
g40
(g69
S'\x01\x00\x00\x00'
p968
tp969
Rp970
sg18
F1.8166607333696447
sg16
F1.066091080661863
sg29
I0
sg28
S'l'
p971
sg22
F3.067653661419172
sg19
I109
sg24
F3.100948144099675
sg21
I111
sa(dp972
g30
I0
sg20
F1.7499438138329424
sg27
F4.368789960455615
sg32
g40
(g69
S'\x01\x00\x00\x00'
p973
tp974
Rp975
sg39
g49
sg25
I216
sg14
I48
sg17
I63
sg37
g38
sg15
F583.2228888386162
sg31
g40
(g44
S'\x00\x00\x00\x00\x00\x00\x00\x00'
p976
tp977
Rp978
sg50
g55
sg23
I214
sg26
F79.0
sg33
g40
(g69
S'\x01\x00\x00\x00'
p979
tp980
Rp981
sg18
F1.716563539521303
sg16
F1.049446405726485
sg29
I0
sg28
S'l'
p982
sg22
F3.5680985679500736
sg19
I103
sg24
F3.601464543666225
sg21
I105
sa(dp983
g30
I0
sg20
F1.599749811051879
sg27
F3.4346178001142107
sg32
g40
(g69
S'\xff\xff\xff\xff'
p984
tp985
Rp986
sg39
g49
sg25
I201
sg14
I49
sg17
I66
sg37
g38
sg15
F587.6096726756659
sg31
g40
(g44
S'\xcat\xe6J\x94\x06\xbb?'
p987
tp988
Rp989
sg50
g55
sg23
I199
sg26
I73
sg33
g40
(g69
S'\xff\xff\xff\xff'
p990
tp991
Rp992
sg18
F1.5665029903757386
sg16
F1.0994812539429404
sg29
I0
sg28
S'l'
p993
sg22
F3.317801871919073
sg19
I94
sg24
F3.351159415091388
sg21
I96
sa(dp994
g30
I1
sg20
F1.949965151725337
sg27
F4.001748095965013
sg32
g40
(g69
S'\xff\xff\xff\xff'
p995
tp996
Rp997
sg39
g49
sg25
I214
sg14
I50
sg17
I69
sg37
g38
sg15
F591.0623804096249
sg31
g40
(g44
S'\xcat\xe6J\x94\x06\xbb?'
p998
tp999
Rp1000
sg50
g55
sg23
I212
sg26
I65
sg33
g40
(g69
S'\xff\xff\xff\xff'
p1001
tp1002
Rp1003
sg18
F1.9167670929455198
sg16
F1.1494061129633337
sg29
I0
sg28
S'a'
p1004
sg22
F3.5346061046002433
sg19
I115
sg24
F3.567946416151244
sg21
I117
sa(dp1005
g30
I1
sg20
F1.6831524681765586
sg27
F3.3679302110685967
sg32
g40
(g69
S'\xff\xff\xff\xff'
p1006
tp1007
Rp1008
sg39
g49
sg25
I184
sg14
I51
sg17
I61
sg37
g38
sg15
F595.0822030409472
sg31
g40
(g44
S'x\x80\xfd\xebo\xba\xbd?'
p1009
tp1010
Rp1011
sg50
g55
sg23
I182
sg26
I51
sg33
g40
(g69
S'\x01\x00\x00\x00'
p1012
tp1013
Rp1014
sg18
F1.6498257219791412
sg16
F1.0160456000594422
sg29
I0
sg28
S'l'
p1015
sg22
F3.0342374572646804
sg19
I99
sg24
F3.0675792352994904
sg21
I101
sa(dp1016
g30
I0
sg20
F1.6831598008284345
sg27
F4.318617625627667
sg32
g40
(g69
S'\xff\xff\xff\xff'
p1017
tp1018
Rp1019
sg39
g49
sg25
I199
sg14
I52
sg17
I64
sg37
g38
sg15
F598.4681337279035
sg31
g40
(g44
S'\xcat\xe6J\x94\x06\xbb?'
p1020
tp1021
Rp1022
sg50
g55
sg23
I197
sg26
I66
sg33
g40
(g69
S'\xff\xff\xff\xff'
p1023
tp1024
Rp1025
sg18
F1.6498546858783811
sg16
F1.0661328765563667
sg29
I0
sg28
g118
sg22
F3.2845359864877537
sg19
I99
sg24
F3.317892796418164
sg21
I101
sa(dp1026
g30
I1
sg20
F1.5665015238919295
sg27
F3.6182419389951974
sg32
g40
(g69
S'\x01\x00\x00\x00'
p1027
tp1028
Rp1029
sg39
g49
sg25
I198
sg14
I53
sg17
I66
sg37
g38
sg15
F602.7880664584809
sg31
g40
(g44
S'\xa1\xfaq\x1b\x82`\xbc?'
p1030
tp1031
Rp1032
sg50
g55
sg23
I196
sg26
I72
sg33
g40
(g69
S'\x01\x00\x00\x00'
p1033
tp1034
Rp1035
sg18
F1.5332279392168857
sg16
F1.0995644791983068
sg29
I0
sg28
S'l'
p1036
sg22
F3.2679837025352754
sg19
I92
sg24
F3.3013276804122142
sg21
I94
sa(dp1037
g30
I1
sg20
F1.9666622548829764
sg27
F3.7180978897376917
sg32
g40
(g69
S'\x01\x00\x00\x00'
p1038
tp1039
Rp1040
sg39
g49
sg25
I204
sg14
I54
sg17
I68
sg37
g38
sg15
F606.4243983312626
sg31
g40
(g44
S'\xcat\xe6J\x94\x06\xbb?'
p1041
tp1042
Rp1043
sg50
g55
sg23
I202
sg26
I54
sg33
g40
(g69
S'\xff\xff\xff\xff'
p1044
tp1045
Rp1046
sg18
F1.9333868370158598
sg16
F1.1328109332243912
sg29
I0
sg28
S'a'
p1047
sg22
F3.3678396532777697
sg19
I116
sg24
F3.4012133282376453
sg21
I118
sa(dp1048
g30
I1
sg20
F2.0333036484080367
sg27
F3.4011916969902813
sg32
g40
(g69
S'\xff\xff\xff\xff'
p1049
tp1050
Rp1051
sg39
g49
sg25
I182
sg14
I55
sg17
I72
sg37
g38
sg15
F610.1607357402099
sg31
g40
(g44
S'\xf3\xeeZz\xa6\xac\xb9?'
p1052
tp1053
Rp1054
sg50
g55
sg23
I180
sg26
I28
sg33
g40
(g69
S'\x01\x00\x00\x00'
p1055
tp1056
Rp1057
sg18
F2.0000113655114546
sg16
F1.1994897231343202
sg29
I0
sg28
S'l'
p1058
sg22
F3.0008769810083322
sg19
I120
sg24
F3.0342763201333582
sg21
I122
sa(dp1059
g30
I1
sg20
F1.733010233787354
sg27
F3.6011683059623465
sg32
g40
(g69
S'\xff\xff\xff\xff'
p1060
tp1061
Rp1062
sg39
g49
sg25
I177
sg14
I56
sg17
I72
sg37
g38
sg15
F613.5800302030402
sg31
g40
(g44
S'\xf3\xeeZz\xa6\xac\xb9?'
p1063
tp1064
Rp1065
sg50
g55
sg23
I175
sg26
I41
sg33
g40
(g69
S'\xff\xff\xff\xff'
p1066
tp1067
Rp1068
sg18
F1.6997626798111014
sg16
F1.1993812004220672
sg29
I0
sg28
S'a'
p1069
sg22
F2.917314839491155
sg19
I102
sg24
F2.9507259107776918
sg21
I104
sa(dp1070
g30
I0
sg20
F1.649731497920584
sg27
F3.668045809841715
sg32
g40
(g69
S'\xff\xff\xff\xff'
p1071
tp1072
Rp1073
sg39
g49
sg25
I187
sg14
I57
sg17
I60
sg37
g38
sg15
F617.1995131875738
sg31
g40
(g44
S'\xcat\xe6J\x94\x06\xbb?'
p1074
tp1075
Rp1076
sg50
g55
sg23
I185
sg26
I56
sg33
g40
(g69
S'\xff\xff\xff\xff'
p1077
tp1078
Rp1079
sg18
F1.6164718451327644
sg16
F0.9992949688457884
sg29
I0
sg28
S'l'
p1080
sg22
F3.0842616732697934
sg19
I97
sg24
F3.11760125157889
sg21
I99
sa(dp1081
g30
I1
sg20
F1.7165485076257028
sg27
F3.601437412959058
sg32
g40
(g69
S'\xff\xff\xff\xff'
p1082
tp1083
Rp1084
sg39
g49
sg25
I198
sg14
I58
sg17
I68
sg37
g38
sg15
F620.8856276665465
sg31
g40
(g44
S'\xf3\xeeZz\xa6\xac\xb9?'
p1085
tp1086
Rp1087
sg50
g55
sg23
I196
sg26
I63
sg33
g40
(g69
S'\x01\x00\x00\x00'
p1088
tp1089
Rp1090
sg18
F1.683281888894271
sg16
F1.1328490627929568
sg29
I0
sg28
S'l'
p1091
sg22
F3.267921741877217
sg19
I101
sg24
F3.301193126826547
sg21
I103
sa(dp1092
g30
I1
sg20
F1.5830534411943518
sg27
F4.352003032749053
sg32
g40
(g69
S'\x01\x00\x00\x00'
p1093
tp1094
Rp1095
sg39
g49
sg25
I201
sg14
I59
sg17
I60
sg37
g38
sg15
F624.5051905766013
sg31
g40
(g44
S'\x00\x00\x00\x00\x00\x00\x00\x00'
p1096
tp1097
Rp1098
sg50
g55
sg23
I199
sg26
F74.0
sg33
g40
(g69
S'\x01\x00\x00\x00'
p1099
tp1100
Rp1101
sg18
F1.5498143197619356
sg16
F0.9993129337090068
sg29
I0
sg28
g118
sg22
F3.3178044383530505
sg19
I93
sg24
F3.3511729804449715
sg21
I95
sa(dp1102
g30
I0
sg20
F1.9834396501537412
sg27
F4.452094360487536
sg32
g40
(g69
S'\x01\x00\x00\x00'
p1103
tp1104
Rp1105
sg39
g49
sg25
I207
sg14
I60
sg17
I70
sg37
g38
sg15
F628.8584933158127
sg31
g40
(g44
S'\xcat\xe6J\x94\x06\xbb?'
p1106
tp1107
Rp1108
sg50
g55
sg23
I205
sg26
I56
sg33
g40
(g69
S'\xff\xff\xff\xff'
p1109
tp1110
Rp1111
sg18
F1.950150300282985
sg16
F1.1662029396975413
sg29
I0
sg28
g118
sg22
F3.4180211538332514
sg19
I117
sg24
F3.4513156365137547
sg21
I119
sa(dp1112
g30
I1
sg20
F1.86682756873779
sg27
F3.968581200868357
sg32
g40
(g69
S'\xff\xff\xff\xff'
p1113
tp1114
Rp1115
sg39
g49
sg25
I220
sg14
I61
sg17
I63
sg37
g38
sg15
F633.3119035144919
sg31
g40
(g44
S'\xcat\xe6J\x94\x06\xbb?'
p1116
tp1117
Rp1118
sg50
g55
sg23
I218
sg26
I76
sg33
g40
(g69
S'\x01\x00\x00\x00'
p1119
tp1120
Rp1121
sg18
F1.8335470180027187
sg16
F1.0495171654620208
sg29
I0
sg28
S'l'
p1122
sg22
F3.635011635022238
sg19
I110
sg24
F3.668273854185827
sg21
I112
sa(dp1123
g30
I1
sg20
F2.0167183677549474
sg27
F3.117724806186743
sg32
g40
(g69
S'\xff\xff\xff\xff'
p1124
tp1125
Rp1126
sg39
g49
sg25
I156
sg14
I62
sg17
I70
sg37
g38
sg15
F637.298511955305
sg31
g40
(g44
S'\xf3\xeeZz\xa6\xac\xb9?'
p1127
tp1128
Rp1129
sg50
g55
sg23
I154
sg26
I3
sg33
g40
(g69
S'\x01\x00\x00\x00'
p1130
tp1131
Rp1132
sg18
F1.9834202187485062
sg16
F1.1661156815825962
sg29
I0
sg28
S'l'
p1133
sg22
F2.5673667727969587
sg19
I119
sg24
F2.600657589151524
sg21
I121
sa(dp1134
g30
I1
sg20
F1.5664424963179044
sg27
F2.6006509897997603
sg32
g40
(g69
S'\xff\xff\xff\xff'
p1135
tp1136
Rp1137
sg39
g49
sg25
I134
sg14
I63
sg17
I61
sg37
g38
sg15
F640.4343050640309
sg31
g40
(g44
S'x\x80\xfd\xebo\xba\xbd?'
p1138
tp1139
Rp1140
sg50
g55
sg23
I132
sg26
I8
sg33
g40
(g69
S'\x01\x00\x00\x00'
p1141
tp1142
Rp1143
sg18
F1.5330779871437699
sg16
F1.0160804300103337
sg29
I0
sg28
S'l'
p1144
sg22
F2.200346539495513
sg19
I92
sg24
F2.233700049750041
sg21
I94
sa(dp1145
g30
I0
sg20
F1.9499270220985636
sg27
F4.768849501328077
sg32
g40
(g69
S'\xff\xff\xff\xff'
p1146
tp1147
Rp1148
sg39
g49
sg25
I226
sg14
I64
sg17
I67
sg37
g38
sg15
F643.0530074913986
sg31
g40
(g44
S'\xcat\xe6J\x94\x06\xbb?'
p1149
tp1150
Rp1151
sg50
g55
sg23
I224
sg26
I77
sg33
g40
(g69
S'\xff\xff\xff\xff'
p1152
tp1153
Rp1154
sg18
F1.9167340961867012
sg16
F1.1160067738965154
sg29
I0
sg28
g118
sg22
F3.7348232234362513
sg19
I115
sg24
F3.768082509515807
sg21
I117
sa(dp1155
g30
I1
sg20
F1.9168158548418432
sg27
F3.1011358590913005
sg32
g40
(g69
S'\xff\xff\xff\xff'
p1156
tp1157
Rp1158
sg39
g49
sg25
I169
sg14
I65
sg17
I64
sg37
g38
sg15
F647.8232523897896
sg31
g40
(g44
S'\xa1\xfaq\x1b\x82`\xbc?'
p1159
tp1160
Rp1161
sg50
g55
sg23
I167
sg26
I22
sg33
g40
(g69
S'\xff\xff\xff\xff'
p1162
tp1163
Rp1164
sg18
F1.883507073565852
sg16
F1.0662267340230756
sg29
I0
sg28
S'a'
p1165
sg22
F2.784324257110711
sg19
I113
sg24
F2.8176880330429412
sg21
I115
sa(dp1166
g30
I1
sg20
F1.7331939158029854
sg27
F2.9174886225373484
sg32
g40
(g69
S'\x01\x00\x00\x00'
p1167
tp1168
Rp1169
sg39
g49
sg25
I152
sg14
I66
sg17
I72
sg37
g38
sg15
F650.9425383101916
sg31
g40
(g44
S'\xa1\xfaq\x1b\x82`\xbc?'
p1170
tp1171
Rp1172
sg50
g55
sg23
I150
sg26
I16
sg33
g40
(g69
S'\xff\xff\xff\xff'
p1173
tp1174
Rp1175
sg18
F1.6999723927001469
sg16
F1.1994596594013274
sg29
I0
sg28
S'a'
p1176
sg22
F2.5004804697236978
sg19
I102
sg24
F2.533839112846181
sg21
I104
sa(dp1177
g30
I1
sg20
F1.566354138252791
sg27
F2.6506429422297515
sg32
g40
(g69
S'\xff\xff\xff\xff'
p1178
tp1179
Rp1180
sg39
g49
sg25
I135
sg14
I67
sg17
I61
sg37
g38
sg15
F653.8781949589029
sg31
g40
(g44
S'\xa1\xfaq\x1b\x82`\xbc?'
p1181
tp1182
Rp1183
sg50
g55
sg23
I133
sg26
I9
sg33
g40
(g69
S'\xff\xff\xff\xff'
p1184
tp1185
Rp1186
sg18
F1.533101818175055
sg16
F1.016034601139836
sg29
I0
sg28
S'a'
p1187
sg22
F2.2169688499416225
sg19
I92
sg24
F2.250331525981892
sg21
I94
sa(dp1188
g30
I1
sg20
F1.5497222954872996
sg27
F3.534721593372524
sg32
g40
(g69
S'\xff\xff\xff\xff'
p1189
tp1190
Rp1191
sg39
g49
sg25
I189
sg14
I68
sg17
I61
sg37
g38
sg15
F656.5468963047024
sg31
g40
(g44
S'\xcat\xe6J\x94\x06\xbb?'
p1192
tp1193
Rp1194
sg50
g55
sg23
I187
sg26
I64
sg33
g40
(g69
S'\xff\xff\xff\xff'
p1195
tp1196
Rp1197
sg18
F1.51650223886827
sg16
F1.0160192026523873
sg29
I0
sg28
S'a'
p1198
sg22
F3.1177376382402144
sg19
I91
sg24
F3.1510918817366473
sg21
I93
sa(dp1199
g30
I1
sg20
F1.8331660885596648
sg27
F3.4511554188793525
sg32
g40
(g69
S'\xff\xff\xff\xff'
p1200
tp1201
Rp1202
sg39
g49
sg25
I188
sg14
I69
sg17
I66
sg37
g38
sg15
F660.0996631028829
sg31
g40
(g44
S'\xa1\xfaq\x1b\x82`\xbc?'
p1203
tp1204
Rp1205
sg50
g55
sg23
I186
sg26
I46
sg33
g40
(g69
S'\x01\x00\x00\x00'
p1206
tp1207
Rp1208
sg18
F1.7998628067434765
sg16
F1.09931370371487
sg29
I0
sg28
S'l'
p1209
sg22
F3.1009888401604258
sg19
I108
sg24
F3.134254358999897
sg21
I110
sa(dp1210
g30
I0
sg20
F1.766333680250682
sg27
F4.2851500931428745
sg32
g40
(g69
S'\xff\xff\xff\xff'
p1211
tp1212
Rp1213
sg39
g49
sg25
I197
sg14
I70
sg17
I62
sg37
g38
sg15
F663.569055841188
sg31
g40
(g44
S'\xf3\xeeZz\xa6\xac\xb9?'
p1214
tp1215
Rp1216
sg50
g55
sg23
I195
sg26
I59
sg33
g40
(g69
S'\xff\xff\xff\xff'
p1217
tp1218
Rp1219
sg18
F1.7330571624916047
sg16
F1.0325674536288716
sg29
I0
sg28
g118
sg22
F3.2508723064674996
sg19
I104
sg24
F3.2841950197471306
sg21
I106
sa(dp1220
g30
I0
sg20
F1.616423449886497
sg27
F3.784889235335868
sg32
g40
(g69
S'\x01\x00\x00\x00'
p1221
tp1222
Rp1223
sg39
g49
sg25
I167
sg14
I71
sg17
I67
sg37
g38
sg15
F667.8557058212464
sg31
g40
(g44
S'\xcat\xe6J\x94\x06\xbb?'
p1224
tp1225
Rp1226
sg50
g55
sg23
I165
sg26
I38
sg33
g40
(g69
S'\x01\x00\x00\x00'
p1227
tp1228
Rp1229
sg18
F1.5831531648291275
sg16
F1.116098798229359
sg29
I0
sg28
g118
sg22
F2.7507482019718736
sg19
I95
sg24
F2.7841061117942445
sg21
I97
sa(dp1230
g30
I1
sg20
F1.4997622398659587
sg27
F3.785024522105232
sg32
g40
(g69
S'\x01\x00\x00\x00'
p1231
tp1232
Rp1233
sg39
g49
sg25
I201
sg14
I72
sg17
I63
sg37
g38
sg15
F671.6419068618561
sg31
g40
(g44
S'\xcat\xe6J\x94\x06\xbb?'
p1234
tp1235
Rp1236
sg50
g55
sg23
I199
sg26
I79
sg33
g40
(g69
S'\x01\x00\x00\x00'
p1237
tp1238
Rp1239
sg18
F1.4664710568613373
sg16
F1.049535497033503
sg29
I0
sg28
S'l'
p1240
sg22
F3.3179862872930244
sg19
I88
sg24
F3.351347130141221
sg21
I90
sa(dp1241
g30
I1
sg20
F1.8999534012400545
sg27
F3.451275307161268
sg32
g40
(g69
S'\xff\xff\xff\xff'
p1242
tp1243
Rp1244
sg39
g49
sg25
I187
sg14
I73
sg17
I71
sg37
g38
sg15
F675.4449952869909
sg31
g40
(g44
S'\xf3\xeeZz\xa6\xac\xb9?'
p1245
tp1246
Rp1247
sg50
g55
sg23
I185
sg26
I41
sg33
g40
(g69
S'\x01\x00\x00\x00'
p1248
tp1249
Rp1250
sg18
F1.8667007144540548
sg16
F1.1828083851723932
sg29
I0
sg28
S'l'
p1251
sg22
F3.0842829378671013
sg19
I112
sg24
F3.117661378986668
sg21
I114
sa(dp1252
g30
I0
sg20
F1.5997010491555557
sg27
F3.9183032762957737
sg32
g40
(g69
S'\x01\x00\x00\x00'
p1253
tp1254
Rp1255
sg39
g49
sg25
I177
sg14
I74
sg17
I63
sg37
g38
sg15
F678.914411856269
sg31
g40
(g44
S'\x00\x00\x00\x00\x00\x00\x00\x00'
p1256
tp1257
Rp1258
sg50
g55
sg23
I175
sg26
F49.0
sg33
g40
(g69
S'\x01\x00\x00\x00'
p1259
tp1260
Rp1261
sg18
F1.5665099563775584
sg16
F1.0494170752353966
sg29
I0
sg28
S'a'
p1262
sg22
F2.917590912547894
sg19
I94
sg24
F2.950813902192749
sg21
I96
sa(dp1263
g30
I1
sg20
F1.599627356394194
sg27
F2.7672869205707684
sg32
g40
(g69
S'\xff\xff\xff\xff'
p1264
tp1265
Rp1266
sg39
g49
sg25
I143
sg14
I75
sg17
I62
sg37
g38
sg15
F682.8508274308988
sg31
g40
(g44
S'\xa1\xfaq\x1b\x82`\xbc?'
p1267
tp1268
Rp1269
sg50
g55
sg23
I141
sg26
I15
sg33
g40
(g69
S'\x01\x00\x00\x00'
p1270
tp1271
Rp1272
sg18
F1.5663530383608304
sg16
F1.032584318658337
sg29
I0
sg28
S'l'
p1273
sg22
F2.3502835339750163
sg19
I94
sg24
F2.3836542758508585
sg21
I96
sa(dp1274
g30
I1
sg20
F1.8165511107072234
sg27
F4.335278798942454
sg32
g40
(g69
S'\x01\x00\x00\x00'
p1275
tp1276
Rp1277
sg39
g49
sg25
I200
sg14
I76
sg17
I69
sg37
g38
sg15
F685.636326739972
sg31
g40
(g44
S'\x00\x00\x00\x00\x00\x00\x00\x00'
p1278
tp1279
Rp1280
sg50
g55
sg23
I198
sg26
F59.0
sg33
g40
(g69
S'\x01\x00\x00\x00'
p1281
tp1282
Rp1283
sg18
F1.7832481955410913
sg16
F1.1494193117250688
sg29
I0
sg28
g118
sg22
F3.3012140248320065
sg19
I107
sg24
F3.3344722110196017
sg21
I109
sa(dp1284
g30
I0
sg20
F1.8667212458094582
sg27
F2.9677144854795188
sg32
g40
(g69
S'\x01\x00\x00\x00'
p1285
tp1286
Rp1287
sg39
g49
sg25
I176
sg14
I77
sg17
I72
sg37
g38
sg15
F689.9729078118107
sg31
g40
(g44
S'\xcat\xe6J\x94\x06\xbb?'
p1288
tp1289
Rp1290
sg50
g55
sg23
I174
sg26
I32
sg33
g40
(g69
S'\xff\xff\xff\xff'
p1291
tp1292
Rp1293
sg18
F1.8334571934537962
sg16
F1.1996638728305697
sg29
I0
sg28
S'l'
p1294
sg22
F2.900945504370611
sg19
I110
sg24
F2.9343719741445966
sg21
I112
sa(dp1295
g30
I1
sg20
F1.5830842382274568
sg27
F2.784163672826253
sg32
g40
(g69
S'\x01\x00\x00\x00'
p1296
tp1297
Rp1298
sg39
g49
sg25
I142
sg14
I78
sg17
I61
sg37
g38
sg15
F692.9586737348582
sg31
g40
(g44
S'\xa1\xfaq\x1b\x82`\xbc?'
p1299
tp1300
Rp1301
sg50
g55
sg23
I140
sg26
I15
sg33
g40
(g69
S'\x01\x00\x00\x00'
p1302
tp1303
Rp1304
sg18
F1.5499096438288689
sg16
F1.0160371675738133
sg29
I0
sg28
S'l'
p1305
sg22
F2.3337283169967122
sg19
I93
sg24
F2.367125089687761
sg21
I95
sa(dp1306
g30
I1
sg20
F2.016746231704019
sg27
F3.1010115712415427
sg32
g40
(g69
S'\x01\x00\x00\x00'
p1307
tp1308
Rp1309
sg39
g49
sg25
I157
sg14
I79
sg17
I69
sg37
g38
sg15
F695.760869780439
sg31
g40
(g44
S'\xf3\xeeZz\xa6\xac\xb9?'
p1310
tp1311
Rp1312
sg50
g55
sg23
I155
sg26
I4
sg33
g40
(g69
S'\xff\xff\xff\xff'
p1313
tp1314
Rp1315
sg18
F1.9834407501039095
sg16
F1.1494548749178648
sg29
I0
sg28
S'a'
p1316
sg22
F2.583929322368931
sg19
I119
sg24
F2.617305563762784
sg21
I121
sa(dp1317
g30
I1
sg20
F1.8666783499647863
sg27
F4.035158800659701
sg32
g40
(g69
S'\xff\xff\xff\xff'
p1318
tp1319
Rp1320
sg39
g49
sg25
I215
sg14
I80
sg17
I61
sg37
g38
sg15
F698.8799485543859
sg31
g40
(g44
S'\xcat\xe6J\x94\x06\xbb?'
p1321
tp1322
Rp1323
sg50
g55
sg23
I213
sg26
I71
sg33
g40
(g69
S'\xff\xff\xff\xff'
p1324
tp1325
Rp1326
sg18
F1.8334296961547807
sg16
F1.0160456000594422
sg29
I0
sg28
S'a'
p1327
sg22
F3.5514414276112802
sg19
I110
sg24
F3.584806303435471
sg21
I112
sa(dp1328
g30
I1
sg20
F1.5496933316462673
sg27
F3.4012631900259294
sg32
g40
(g69
S'\x01\x00\x00\x00'
p1329
tp1330
Rp1331
sg39
g49
sg25
I186
sg14
I81
sg17
I65
sg37
g38
sg15
F702.9331866565626
sg31
g40
(g44
S'\xa1\xfaq\x1b\x82`\xbc?'
p1332
tp1333
Rp1334
sg50
g55
sg23
I184
sg26
I61
sg33
g40
(g69
S'\xff\xff\xff\xff'
p1335
tp1336
Rp1337
sg18
F1.5164457776700146
sg16
F1.082774618465919
sg29
I0
sg28
S'a'
p1338
sg22
F3.0676661268807948
sg19
I91
sg24
F3.100933845504187
sg21
I93
sa(dp1339
g30
I1
sg20
F1.5830351096810773
sg27
F3.4679390469100326
sg32
g40
(g69
S'\x01\x00\x00\x00'
p1340
tp1341
Rp1342
sg39
g49
sg25
I190
sg14
I82
sg17
I66
sg37
g38
sg15
F706.3524745200993
sg31
g40
(g44
S'\xcat\xe6J\x94\x06\xbb?'
p1343
tp1344
Rp1345
sg50
g55
sg23
I188
sg26
I63
sg33
g40
(g69
S'\x01\x00\x00\x00'
p1346
tp1347
Rp1348
sg18
F1.5497373273246922
sg16
F1.0994706216733903
sg29
I0
sg28
S'l'
p1349
sg22
F3.1343100868398324
sg19
I93
sg24
F3.16766946320422
sg21
I95
sa(dp1350
g30
I1
sg20
F1.966198100184556
sg27
F3.9678897350095212
sg32
g40
(g69
S'\xff\xff\xff\xff'
p1351
tp1352
Rp1353
sg39
g49
sg25
I220
sg14
I83
sg17
I71
sg37
g38
sg15
F709.8385559290182
sg31
g40
(g44
S'\xcat\xe6J\x94\x06\xbb?'
p1354
tp1355
Rp1356
sg50
g55
sg23
I218
sg26
I70
sg33
g40
(g69
S'\x01\x00\x00\x00'
p1357
tp1358
Rp1359
sg18
F1.9329611785360612
sg16
F1.182390425936319
sg29
I0
sg28
S'l'
p1360
sg22
F3.6342248451546766
sg19
I116
sg24
F3.6676131853600964
sg21
I118
sa(dp1361
g30
I1
sg20
F1.5830307100550272
sg27
F3.0175341214053333
sg32
g40
(g69
S'\xff\xff\xff\xff'
p1362
tp1363
Rp1364
sg39
g49
sg25
I163
sg14
I84
sg17
I68
sg37
g38
sg15
F713.824990953377
sg31
g40
(g44
S'\xa1\xfaq\x1b\x82`\xbc?'
p1365
tp1366
Rp1367
sg50
g55
sg23
I161
sg26
I36
sg33
g40
(g69
S'\x01\x00\x00\x00'
p1368
tp1369
Rp1370
sg18
F1.549763358081691
sg16
F1.1327317409450188
sg29
I0
sg28
S'l'
p1371
sg22
F2.6839564897236414
sg19
I93
sg24
F2.7173187991138548
sg21
I95
sa(dp1372
g30
I0
sg20
F1.7331689849379472
sg27
F4.401988385885488
sg32
g40
(g69
S'\x01\x00\x00\x00'
p1373
tp1374
Rp1375
sg39
g49
sg25
I204
sg14
I85
sg17
I65
sg37
g38
sg15
F716.8607128990698
sg31
g40
(g44
S'\xcat\xe6J\x94\x06\xbb?'
p1376
tp1377
Rp1378
sg50
g55
sg23
I202
sg26
I68
sg33
g40
(g69
S'\xff\xff\xff\xff'
p1379
tp1380
Rp1381
sg18
F1.6999525946448557
sg16
F1.0827573867863975
sg29
I0
sg28
g118
sg22
F3.367840386519674
sg19
I102
sg24
F3.401276388729457
sg21
I104
sa(dp1382
g30
I1
sg20
F1.4664391599944793
sg27
F3.0511376739596017
sg32
g40
(g69
S'\x01\x00\x00\x00'
p1383
tp1384
Rp1385
sg39
g49
sg25
I163
sg14
I86
sg17
I60
sg37
g38
sg15
F721.2640050243353
sg31
g40
(g44
S'\xf3\xeeZz\xa6\xac\xb9?'
p1386
tp1387
Rp1388
sg50
g55
sg23
I161
sg26
I43
sg33
g40
(g69
S'\xff\xff\xff\xff'
p1389
tp1390
Rp1391
sg18
F1.4332473339745775
sg16
F0.9994760844856501
sg29
I0
sg28
S'a'
p1392
sg22
F2.6841101080644876
sg19
I86
sg24
F2.7175076140556484
sg21
I88
sa(dp1393
g30
I0
sg20
F1.5830336431390606
sg27
F3.4679592115571722
sg32
g40
(g69
S'\xff\xff\xff\xff'
p1394
tp1395
Rp1396
sg39
g49
sg25
I148
sg14
I87
sg17
I63
sg37
g38
sg15
F724.3332410645671
sg31
g40
(g44
S'\xa1\xfaq\x1b\x82`\xbc?'
p1397
tp1398
Rp1399
sg50
g55
sg23
I146
sg26
I21
sg33
g40
(g69
S'\xff\xff\xff\xff'
p1400
tp1401
Rp1402
sg18
F1.5497479595942423
sg16
F1.0493576810113154
sg29
I0
sg28
g118
sg22
F2.4338478753343225
sg19
I93
sg24
F2.4671845205593854
sg21
I95
sa(dp1403
g30
I1
sg20
F1.5331172166625038
sg27
F3.1678021835396066
sg32
g40
(g69
S'\x01\x00\x00\x00'
p1404
tp1405
Rp1406
sg39
g49
sg25
I168
sg14
I88
sg17
I60
sg37
g38
sg15
F727.8024988826946
sg31
g40
(g44
S'\xcat\xe6J\x94\x06\xbb?'
p1407
tp1408
Rp1409
sg50
g55
sg23
I166
sg26
I44
sg33
g40
(g69
S'\x01\x00\x00\x00'
p1410
tp1411
Rp1412
sg18
F1.4998758954461664
sg16
F0.9994903830811381
sg29
I0
sg28
S'l'
p1413
sg22
F2.7674808682641014
sg19
I90
sg24
F2.800806147919502
sg21
I92
sa(dp1414
g30
I1
sg20
F1.9836695276899263
sg27
F3.0679161690641195
sg32
g40
(g69
S'\x01\x00\x00\x00'
p1415
tp1416
Rp1417
sg39
g49
sg25
I157
sg14
I89
sg17
I69
sg37
g38
sg15
F752.5048760072677
sg31
g40
(g44
S'\xcat\xe6J\x94\x06\xbb?'
p1418
tp1419
Rp1420
sg50
g55
sg23
I155
sg26
I6
sg33
g40
(g69
S'\x01\x00\x00\x00'
p1421
tp1422
Rp1423
sg18
F1.9503625795478001
sg16
F1.149771643918939
sg29
I0
sg28
S'l'
p1424
sg22
F2.584192929964047
sg19
I117
sg24
F2.617551206378266
sg21
I119
sa(dp1425
g30
I0
sg20
F1.7165301761124283
sg27
F4.468674141797237
sg32
g40
(g69
S'\xff\xff\xff\xff'
p1426
tp1427
Rp1428
sg39
g49
sg25
I208
sg14
I90
sg17
I67
sg37
g38
sg15
F755.5910236297641
sg31
g40
(g44
S'\xcat\xe6J\x94\x06\xbb?'
p1429
tp1430
Rp1431
sg50
g55
sg23
I206
sg26
I73
sg33
g40
(g69
S'\x01\x00\x00\x00'
p1432
tp1433
Rp1434
sg18
F1.6832246945123188
sg16
F1.11611493001692
sg29
I1
sg28
g118
sg22
F3.4345932358992286
sg19
I101
sg24
F3.467884785553906
sg21
I103
sa(dp1435
g30
I0
sg20
F1.7834223451791331
sg27
F4.318749246071093
sg32
g40
(g69
S'\x01\x00\x00\x00'
p1436
tp1437
Rp1438
sg39
g49
sg25
I199
sg14
I91
sg17
I67
sg37
g38
sg15
F760.0609853791539
sg31
g40
(g44
S'\xf3\xeeZz\xa6\xac\xb9?'
p1439
tp1440
Rp1441
sg50
g55
sg23
I197
sg26
I60
sg33
g40
(g69
S'\x01\x00\x00\x00'
p1442
tp1443
Rp1444
sg18
F1.75007066805847
sg16
F1.1162857799208723
sg29
I0
sg28
g118
sg22
F3.2846184783848003
sg19
I105
sg24
F3.318081244651694
sg21
I107
sa(dp1445
g30
I1
sg20
F1.6498880492872559
sg27
F3.418074682005681
sg32
g40
(g69
S'\x01\x00\x00\x00'
p1446
tp1447
Rp1448
sg39
g49
sg25
I182
sg14
I92
sg17
I67
sg37
g38
sg15
F764.3810277323355
sg31
g40
(g44
S'\xcat\xe6J\x94\x06\xbb?'
p1449
tp1450
Rp1451
sg50
g55
sg23
I180
sg26
I51
sg33
g40
(g69
S'\x01\x00\x00\x00'
p1452
tp1453
Rp1454
sg18
F1.6165964996325783
sg16
F1.1161981552140787
sg29
I0
sg28
S'l'
p1455
sg22
F3.0011237236321904
sg19
I97
sg24
F3.0343375475495122
sg21
I99
sa(dp1456
g30
I1
sg20
F1.599757143703755
sg27
F3.6848169723525643
sg32
g40
(g69
S'\x01\x00\x00\x00'
p1457
tp1458
Rp1459
sg39
g49
sg25
I194
sg14
I93
sg17
I65
sg37
g38
sg15
F767.8172084799153
sg31
g40
(g44
S'\xcat\xe6J\x94\x06\xbb?'
p1460
tp1461
Rp1462
sg50
g55
sg23
I192
sg26
I66
sg33
g40
(g69
S'\x01\x00\x00\x00'
p1463
tp1464
Rp1465
sg18
F1.5665165557293221
sg16
F1.0828644429566339
sg29
I0
sg28
S'l'
p1466
sg22
F3.201058170001488
sg19
I94
sg24
F3.2343973816605285
sg21
I96
sa(dp1467
g30
I1
sg20
F1.6664769963244908
sg27
F3.668210427102167
sg32
g40
(g69
S'\x01\x00\x00\x00'
p1468
tp1469
Rp1470
sg39
g49
sg25
I204
sg14
I94
sg17
I65
sg37
g38
sg15
F771.5200842224876
sg31
g40
(g44
S'\xcat\xe6J\x94\x06\xbb?'
p1471
tp1472
Rp1473
sg50
g55
sg23
I202
sg26
I72
sg33
g40
(g69
S'\xff\xff\xff\xff'
p1474
tp1475
Rp1476
sg18
F1.6331678483984433
sg16
F1.0827559203025885
sg29
I0
sg28
S'a'
p1477
sg22
F3.367856884957291
sg19
I98
sg24
F3.401284087973181
sg21
I100
sa(dp1478
g30
I1
sg20
F1.7831635038019158
sg27
F3.7347608961863443
sg32
g40
(g69
S'\x01\x00\x00\x00'
p1479
tp1480
Rp1481
sg39
g49
sg25
I203
sg14
I95
sg17
I70
sg37
g38
sg15
F775.2063512199093
sg31
g40
(g44
S'\xf3\xeeZz\xa6\xac\xb9?'
p1482
tp1483
Rp1484
sg50
g55
sg23
I201
sg26
I64
sg33
g40
(g69
S'\x01\x00\x00\x00'
p1485
tp1486
Rp1487
sg18
F1.749882586474996
sg16
F1.1661556443432346
sg29
I0
sg28
S'l'
p1488
sg22
F3.3512595053762197
sg19
I105
sg24
F3.3845063260523602
sg21
I107
sa(dp1489
g30
I1
sg20
F1.5664142657187767
sg27
F2.73400123702595
sg32
g40
(g69
S'\xff\xff\xff\xff'
p1490
tp1491
Rp1492
sg39
g49
sg25
I145
sg14
I96
sg17
I63
sg37
g38
sg15
F778.9592464122688
sg31
g40
(g44
S'\xa1\xfaq\x1b\x82`\xbc?'
p1493
tp1494
Rp1495
sg50
g55
sg23
I143
sg26
I19
sg33
g40
(g69
S'\x01\x00\x00\x00'
p1496
tp1497
Rp1498
sg18
F1.5330563558964059
sg16
F1.0494797691353597
sg29
I0
sg28
S'l'
p1499
sg22
F2.3837939622462727
sg19
I92
sg24
F2.4171251080115326
sg21
I94
sa(dp1500
g30
I1
sg20
F1.6830919741187245
sg27
F2.817495185183361
sg32
g40
(g69
S'\xff\xff\xff\xff'
p1501
tp1502
Rp1503
sg39
g49
sg25
I144
sg14
I97
sg17
I66
sg37
g38
sg15
F781.7114490388776
sg31
g40
(g44
S'\xcat\xe6J\x94\x06\xbb?'
p1504
tp1505
Rp1506
sg50
g55
sg23
I142
sg26
I11
sg33
g40
(g69
S'\x01\x00\x00\x00'
p1507
tp1508
Rp1509
sg18
F1.649818022735417
sg16
F1.099370531446766
sg29
I0
sg28
S'l'
p1510
sg22
F2.367012533999514
sg19
I99
sg24
F2.4003737434977666
sg21
I101
sa(dp1511
g30
I0
sg20
F1.6498513861442916
sg27
F4.435480849177111
sg32
g40
(g69
S'\xff\xff\xff\xff'
p1512
tp1513
Rp1514
sg39
g49
sg25
I206
sg14
I98
sg17
I72
sg37
g38
sg15
F784.5469326011371
sg31
g40
(g44
S'\xf3\xeeZz\xa6\xac\xb9?'
p1515
tp1516
Rp1517
sg50
g55
sg23
I204
sg26
I75
sg33
g40
(g69
S'\x01\x00\x00\x00'
p1518
tp1519
Rp1520
sg18
F1.6165664358995855
sg16
F1.1995032884879038
sg29
I1
sg28
g118
sg22
F3.4012415587785654
sg19
I97
sg24
F3.434889840253163
sg21
I99
sa(dp1521
g30
I1
sg20
F1.6331359515315853
sg27
F3.134389645769261
sg32
g40
(g69
S'\x01\x00\x00\x00'
p1522
tp1523
Rp1524
sg39
g49
sg25
I155
sg14
I99
sg17
I63
sg37
g38
sg15
F788.9836995914811
sg31
g40
(g44
S'\xcat\xe6J\x94\x06\xbb?'
p1525
tp1526
Rp1527
sg50
g55
sg23
I153
sg26
I25
sg33
g40
(g69
S'\xff\xff\xff\xff'
p1528
tp1529
Rp1530
sg18
F1.599876665393822
sg16
F1.0494082760997117
sg29
I0
sg28
S'a'
p1531
sg22
F2.5506957004545256
sg19
I96
sg24
F2.584009247890208
sg21
I98
sa(dp1532
g30
I1
sg20
F2.066828375332989
sg27
F4.1518640063586645
sg32
g40
(g69
S'\xff\xff\xff\xff'
p1533
tp1534
Rp1535
sg39
g49
sg25
I230
sg14
I100
sg17
I72
sg37
g38
sg15
F792.1362257331493
sg31
g40
(g44
S'\xcat\xe6J\x94\x06\xbb?'
p1536
tp1537
Rp1538
sg50
g55
sg23
I228
sg26
I74
sg33
g40
(g69
S'\x01\x00\x00\x00'
p1539
tp1540
Rp1541
sg18
F2.0335408586543053
sg16
F1.199469558428973
sg29
I0
sg28
S'l'
p1542
sg22
F3.8016592980129644
sg19
I122
sg24
F3.834952314151451
sg21
I124
sa(dp1543
g30
I0
sg20
F1.683048345032148
sg27
F4.185113393410575
sg32
g40
(g69
S'\x01\x00\x00\x00'
p1544
tp1545
Rp1546
sg39
g49
sg25
I191
sg14
I101
sg17
I69
sg37
g38
sg15
F796.3061492429697
sg31
g40
(g44
S'\xcat\xe6J\x94\x06\xbb?'
p1547
tp1548
Rp1549
sg50
g55
sg23
I189
sg26
I58
sg33
g40
(g69
S'\xff\xff\xff\xff'
p1550
tp1551
Rp1552
sg18
F1.6498029908980243
sg16
F1.1494028132874519
sg29
I0
sg28
g118
sg22
F3.1509569615591317
sg19
I99
sg24
F3.1842617099173367
sg21
I101
sa(dp1553
g30
I1
sg20
F1.9334275330766104
sg27
F3.8350267402711324
sg32
g40
(g69
S'\xff\xff\xff\xff'
p1554
tp1555
Rp1556
sg39
g49
sg25
I203
sg14
I102
sg17
I65
sg37
g38
sg15
F800.4926631663111
sg31
g40
(g44
S'\xcat\xe6J\x94\x06\xbb?'
p1557
tp1558
Rp1559
sg50
g55
sg23
I201
sg26
I55
sg33
g40
(g69
S'\xff\xff\xff\xff'
p1560
tp1561
Rp1562
sg18
F1.9002467059181072
sg16
F1.0829150381032377
sg29
I0
sg28
S'a'
p1563
sg22
F3.3512430069968104
sg19
I114
sg24
F3.3846724098548293
sg21
I116
sa(dp1564
g30
I1
sg20
F1.8832969941431656
sg27
F3.801489181292709
sg32
g40
(g69
S'\x01\x00\x00\x00'
p1565
tp1566
Rp1567
sg39
g49
sg25
I207
sg14
I103
sg17
I66
sg37
g38
sg15
F804.3457842399366
sg31
g40
(g44
S'\xcat\xe6J\x94\x06\xbb?'
p1568
tp1569
Rp1570
sg50
g55
sg23
I205
sg26
I62
sg33
g40
(g69
S'\x01\x00\x00\x00'
p1571
tp1572
Rp1573
sg18
F1.85011616704287
sg16
F1.0995267162215896
sg29
I0
sg28
S'l'
p1574
sg22
F3.417859103064984
sg19
I111
sg24
F3.451245976728387
sg21
I113
sa(dp1575
g30
I1
sg20
F1.9666585886152461
sg27
F3.367886948690284
sg32
g40
(g69
S'\xff\xff\xff\xff'
p1576
tp1577
Rp1578
sg39
g49
sg25
I184
sg14
I104
sg17
I72
sg37
g38
sg15
F808.1654337481596
sg31
g40
(g44
S'\xa1\xfaq\x1b\x82`\xbc?'
p1579
tp1580
Rp1581
sg50
g55
sg23
I182
sg26
I34
sg33
g40
(g69
S'\x01\x00\x00\x00'
p1582
tp1583
Rp1584
sg18
F1.933428266318515
sg16
F1.1994787242729217
sg29
I0
sg28
S'l'
p1585
sg22
F3.034213992941659
sg19
I116
sg24
F3.0675763023318723
sg21
I118
sa(dp1586
g30
I1
sg20
F1.9500249125994742
sg27
F3.134453806153033
sg32
g40
(g69
S'\xff\xff\xff\xff'
p1587
tp1588
Rp1589
sg39
g49
sg25
I165
sg14
I105
sg17
I68
sg37
g38
sg15
F811.5513816667954
sg31
g40
(g44
S'\xf3\xeeZz\xa6\xac\xb9?'
p1590
tp1591
Rp1592
sg50
g55
sg23
I163
sg26
I16
sg33
g40
(g69
S'\xff\xff\xff\xff'
p1593
tp1594
Rp1595
sg18
F1.9167894574347883
sg16
F1.1328611616627313
sg29
I0
sg28
S'a'
p1596
sg22
F2.7173448299290612
sg19
I115
sg24
F2.7507760659209453
sg21
I117
sa(dp1597
g30
I1
sg20
F1.7499086172902025
sg27
F2.6840419147047214
sg32
g40
(g69
S'\x01\x00\x00\x00'
p1598
tp1599
Rp1600
sg39
g49
sg25
I138
sg14
I106
sg17
I67
sg37
g38
sg15
F814.7038077182369
sg31
g40
(g44
S'\xcat\xe6J\x94\x06\xbb?'
p1601
tp1602
Rp1603
sg50
g55
sg23
I136
sg26
I1
sg33
g40
(g69
S'\xff\xff\xff\xff'
p1604
tp1605
Rp1606
sg18
F1.7166049688239582
sg16
F1.116155992669519
sg29
I0
sg28
S'a'
p1607
sg22
F2.267049160436727
sg19
I103
sg24
F2.300398271123413
sg21
I105
sa(dp1608
g30
I1
sg20
F1.79992220090935
sg27
F2.950970820209477
sg32
g40
(g69
S'\x01\x00\x00\x00'
p1609
tp1610
Rp1611
sg39
g49
sg25
I160
sg14
I107
sg17
I69
sg37
g38
sg15
F817.4059373670025
sg31
g40
(g44
S'\xcat\xe6J\x94\x06\xbb?'
p1612
tp1613
Rp1614
sg50
g55
sg23
I158
sg26
I20
sg33
g40
(g69
S'\xff\xff\xff\xff'
p1615
tp1616
Rp1617
sg18
F1.7667483398108743
sg16
F1.1494772393489257
sg29
I0
sg28
S'a'
p1618
sg22
F2.6340998240630142
sg19
I106
sg24
F2.66730631532846
sg21
I108
sa(dp1619
g30
I1
sg20
F1.6998239072272554
sg27
F2.6506092122290283
sg32
g40
(g69
S'\x01\x00\x00\x00'
p1620
tp1621
Rp1622
sg39
g49
sg25
I137
sg14
I108
sg17
I61
sg37
g38
sg15
F820.3749654908897
sg31
g40
(g44
S'\xcat\xe6J\x94\x06\xbb?'
p1623
tp1624
Rp1625
sg50
g55
sg23
I135
sg26
I3
sg33
g40
(g69
S'\x01\x00\x00\x00'
p1626
tp1627
Rp1628
sg18
F1.6665873522288166
sg16
F1.0160826298524626
sg29
I0
sg28
S'l'
p1629
sg22
F2.2503076950088143
sg19
I100
sg24
F2.283743330568541
sg21
I102
sa(dp1630
g30
I1
sg20
F1.6831051728804596
sg27
F2.7507537014316767
sg32
g40
(g69
S'\x01\x00\x00\x00'
p1631
tp1632
Rp1633
sg39
g49
sg25
I150
sg14
I109
sg17
I68
sg37
g38
sg15
F823.0437456623185
sg31
g40
(g44
S'\xa1\xfaq\x1b\x82`\xbc?'
p1634
tp1635
Rp1636
sg50
g55
sg23
I148
sg26
I17
sg33
g40
(g69
S'\xff\xff\xff\xff'
p1637
tp1638
Rp1639
sg18
F1.6498715509078465
sg16
F1.1327302744612098
sg29
I0
sg28
S'a'
p1640
sg22
F2.467136125313118
sg19
I99
sg24
F2.5005515961674973
sg21
I101
sa(dp1641
g30
I1
sg20
F1.9833252613898367
sg27
F3.501364050200209
sg32
g40
(g69
S'\x01\x00\x00\x00'
p1642
tp1643
Rp1644
sg39
g49
sg25
I189
sg14
I110
sg17
I70
sg37
g38
sg15
F825.812552267802
sg31
g40
(g44
S'\xa1\xfaq\x1b\x82`\xbc?'
p1645
tp1646
Rp1647
sg50
g55
sg23
I187
sg26
I38
sg33
g40
(g69
S'\xff\xff\xff\xff'
p1648
tp1649
Rp1650
sg18
F1.950031511951238
sg16
F1.1660724191460758
sg29
I0
sg28
S'a'
p1651
sg22
F3.117665778612718
sg19
I117
sg24
F3.151041653298307
sg21
I119
sa(dp1652
g30
I1
sg20
F1.8999339697766118
sg27
F3.0009206100949086
sg32
g40
(g69
S'\xff\xff\xff\xff'
p1653
tp1654
Rp1655
sg39
g49
sg25
I158
sg14
I111
sg17
I69
sg37
g38
sg15
F829.3319893867592
sg31
g40
(g44
S'\xcat\xe6J\x94\x06\xbb?'
p1656
tp1657
Rp1658
sg50
g55
sg23
I156
sg26
I12
sg33
g40
(g69
S'\xff\xff\xff\xff'
p1659
tp1660
Rp1661
sg18
F1.8666636847192422
sg16
F1.1494039131794125
sg29
I0
sg28
S'a'
p1662
sg22
F2.600655755959451
sg19
I112
sg24
F2.6339344735606574
sg21
I114
sa(dp1663
g30
I1
sg20
F1.983298863924574
sg27
F3.0675510047585703
sg32
g40
(g69
S'\x01\x00\x00\x00'
p1664
tp1665
Rp1666
sg39
g49
sg25
I162
sg14
I112
sg17
I70
sg37
g38
sg15
F832.351057858381
sg31
g40
(g44
S'\xcat\xe6J\x94\x06\xbb?'
p1667
tp1668
Rp1669
sg50
g55
sg23
I160
sg26
I11
sg33
g40
(g69
S'\xff\xff\xff\xff'
p1670
tp1671
Rp1672
sg18
F1.9500663418439217
sg16
F1.1660522544407286
sg29
I0
sg28
S'a'
p1673
sg22
F2.6672410550527275
sg19
I117
sg24
F2.7006561592570506
sg21
I119
sa(dp1674
g30
I1
sg20
F1.7831851350492798
sg27
F3.6013904842548072
sg32
g40
(g69
S'\xff\xff\xff\xff'
p1675
tp1676
Rp1677
sg39
g49
sg25
I198
sg14
I113
sg17
I72
sg37
g38
sg15
F835.4367710232618
sg31
g40
(g44
S'\xcat\xe6J\x94\x06\xbb?'
p1678
tp1679
Rp1680
sg50
g55
sg23
I196
sg26
I59
sg33
g40
(g69
S'\x01\x00\x00\x00'
p1681
tp1682
Rp1683
sg18
F1.749891385610681
sg16
F1.1994636923773214
sg29
I0
sg28
S'l'
p1684
sg22
F3.2677611575927585
sg19
I105
sg24
F3.3011571970419027
sg21
I107
sa(dp1685
g30
I1
sg20
F2.066785479488317
sg27
F4.26861577417003
sg32
g40
(g69
S'\xff\xff\xff\xff'
p1686
tp1687
Rp1688
sg39
g49
sg25
I235
sg14
I114
sg17
I72
sg37
g38
sg15
F839.056231276656
sg31
g40
(g44
S'\xcat\xe6J\x94\x06\xbb?'
p1689
tp1690
Rp1691
sg50
g55
sg23
I233
sg26
I79
sg33
g40
(g69
S'\xff\xff\xff\xff'
p1692
tp1693
Rp1694
sg18
F2.033452867239248
sg16
F1.199469558428973
sg29
I0
sg28
S'a'
p1695
sg22
F3.8849889955599792
sg19
I122
sg24
F3.9183392061386257
sg21
I124
sa(dp1696
g30
I0
sg20
F1.6998283067368902
sg27
F4.335273299482651
sg32
g40
(g69
S'\x01\x00\x00\x00'
p1697
tp1698
Rp1699
sg39
g49
sg25
I200
sg14
I115
sg17
I65
sg37
g38
sg15
F843.3429289187188
sg31
g40
(g44
S'\x1ci\xcf\xa9\xb8R\xb8?'
p1700
tp1701
Rp1702
sg50
g55
sg23
I198
sg26
I66
sg33
g40
(g69
S'\xff\xff\xff\xff'
p1703
tp1704
Rp1705
sg18
F1.6665774531429633
sg16
F1.0827896503033116
sg29
I0
sg28
g118
sg22
F3.3011179675231688
sg19
I100
sg24
F3.3344641451258212
sg21
I102
sa(dp1706
g30
I1
sg20
F2.0335375589784235
sg27
F4.235359054466244
sg32
g40
(g69
S'\xff\xff\xff\xff'
p1707
tp1708
Rp1709
sg39
g49
sg25
I207
sg14
I116
sg17
I72
sg37
g38
sg15
F847.6794975250959
sg31
g40
(g44
S'\xcat\xe6J\x94\x06\xbb?'
p1710
tp1711
Rp1712
sg50
g55
sg23
I205
sg26
I53
sg33
g40
(g69
S'\x01\x00\x00\x00'
p1713
tp1714
Rp1715
sg18
F2.0002647074870765
sg16
F1.199612544500269
sg29
I0
sg28
S'l'
p1716
sg22
F3.418077615031507
sg19
I120
sg24
F3.4514300253940746
sg21
I122
sa(dp1717
g30
I1
sg20
F1.8832859951653518
sg27
F3.684835670515895
sg32
g40
(g69
S'\xff\xff\xff\xff'
p1718
tp1719
Rp1720
sg39
g49
sg25
I177
sg14
I117
sg17
I64
sg37
g38
sg15
F851.9329179161577
sg31
g40
(g44
S'\xcat\xe6J\x94\x06\xbb?'
p1721
tp1722
Rp1723
sg50
g55
sg23
I175
sg26
I32
sg33
g40
(g69
S'\x01\x00\x00\x00'
p1724
tp1725
Rp1726
sg18
F1.8499838132411242
sg16
F1.0660393856815062
sg29
I0
sg28
S'l'
p1727
sg22
F2.917633441684302
sg19
I111
sg24
F2.9509682537754998
sg21
I113
sa(dp1728
g30
I1
sg20
F1.8833589546848089
sg27
F3.2177153103984892
sg32
g40
(g69
S'\xff\xff\xff\xff'
p1729
tp1730
Rp1731
sg39
g49
sg25
I152
sg14
I118
sg17
I68
sg37
g38
sg15
F855.6358574524638
sg31
g40
(g44
S'\x1ci\xcf\xa9\xb8R\xb8?'
p1732
tp1733
Rp1734
sg50
g55
sg23
I150
sg26
I7
sg33
g40
(g69
S'\xff\xff\xff\xff'
p1735
tp1736
Rp1737
sg18
F1.8499753806972876
sg16
F1.1328329310636036
sg29
I0
sg28
S'a'
p1738
sg22
F2.5005695610307157
sg19
I111
sg24
F2.533867710037157
sg21
I113
sa(dp1739
g30
I1
sg20
F1.5829925804864615
sg27
F3.3344861430232413
sg32
g40
(g69
S'\xff\xff\xff\xff'
p1740
tp1741
Rp1742
sg39
g49
sg25
I152
sg14
I119
sg17
I65
sg37
g38
sg15
F858.871780018555
sg31
g40
(g44
S'\x1ci\xcf\xa9\xb8R\xb8?'
p1743
tp1744
Rp1745
sg50
g55
sg23
I150
sg26
I25
sg33
g40
(g69
S'\x01\x00\x00\x00'
p1746
tp1747
Rp1748
sg18
F1.5497149628354236
sg16
F1.082658029801678
sg29
I0
sg28
S'l'
p1749
sg22
F2.5005141997826286
sg19
I93
sg24
F2.5338581776595674
sg21
I95
sa(dp1750
g30
I1
sg20
F1.8165441447636113
sg27
F3.6513912358204834
sg32
g40
(g69
S'\x01\x00\x00\x00'
p1751
tp1752
Rp1753
sg39
g49
sg25
I198
sg14
I120
sg17
I68
sg37
g38
sg15
F862.2243428966613
sg31
g40
(g44
S'\xcat\xe6J\x94\x06\xbb?'
p1754
tp1755
Rp1756
sg50
g55
sg23
I196
sg26
I57
sg33
g40
(g69
S'\xff\xff\xff\xff'
p1757
tp1758
Rp1759
sg18
F1.7833479191176593
sg16
F1.132781969383359
sg29
I0
sg28
S'a'
p1760
sg22
F3.267837050196249
sg19
I107
sg24
F3.301108068495523
sg21
I109
sa(dp1761
g30
I1
sg20
F1.733181083749514
sg27
F3.851593322760891
sg32
g40
(g69
S'\xff\xff\xff\xff'
p1762
tp1763
Rp1764
sg39
g49
sg25
I211
sg14
I121
sg17
I70
sg37
g38
sg15
F865.8938702617888
sg31
g40
(g44
S'\xcat\xe6J\x94\x06\xbb?'
p1765
tp1766
Rp1767
sg50
g55
sg23
I209
sg26
I75
sg33
g40
(g69
S'\xff\xff\xff\xff'
p1768
tp1769
Rp1770
sg18
F1.6998770686914213
sg16
F1.1661248473683372
sg29
I0
sg28
S'a'
p1771
sg22
F3.484614518820308
sg19
I102
sg24
F3.518031089566648
sg21
I104
sa(dp1772
g30
I0
sg20
F1.5163966491818428
sg27
F3.4179489276139066
sg32
g40
(g69
S'\xff\xff\xff\xff'
p1773
tp1774
Rp1775
sg39
g49
sg25
I145
sg14
I122
sg17
I63
sg37
g38
sg15
F869.763509522716
sg31
g40
(g44
S'\xf3\xeeZz\xa6\xac\xb9?'
p1776
tp1777
Rp1778
sg50
g55
sg23
I143
sg26
I22
sg33
g40
(g69
S'\x01\x00\x00\x00'
p1779
tp1780
Rp1781
sg18
F1.4830875012557954
sg16
F1.0495098328683525
sg29
I0
sg28
g118
sg22
F2.383862155606039
sg19
I89
sg24
F2.417154438502621
sg21
I91
sa(dp1782
g30
I0
sg20
F1.8334172306931578
sg27
F3.5848393001942895
sg32
g40
(g69
S'\xff\xff\xff\xff'
p1783
tp1784
Rp1785
sg39
g49
sg25
I155
sg14
I123
sg17
I61
sg37
g38
sg15
F873.1827511907322
sg31
g40
(g44
S'\xf3\xeeZz\xa6\xac\xb9?'
p1786
tp1787
Rp1788
sg50
g55
sg23
I153
sg26
I13
sg33
g40
(g69
S'\xff\xff\xff\xff'
p1789
tp1790
Rp1791
sg18
F1.8001696767751127
sg16
F1.0161713545094244
sg29
I0
sg28
g118
sg22
F2.5506869013188407
sg19
I108
sg24
F2.584048844058998
sg21
I110
sa(dp1792
g30
I1
sg20
F1.683276022784412
sg27
F3.751623716438189
sg32
g40
(g69
S'\x01\x00\x00\x00'
p1793
tp1794
Rp1795
sg39
g49
sg25
I208
sg14
I124
sg17
I64
sg37
g38
sg15
F876.7688931304147
sg31
g40
(g44
S'\xf3\xeeZz\xa6\xac\xb9?'
p1796
tp1797
Rp1798
sg50
g55
sg23
I206
sg26
I75
sg33
g40
(g69
S'\x01\x00\x00\x00'
p1799
tp1800
Rp1801
sg18
F1.649974940752145
sg16
F1.0661827383446507
sg29
I0
sg28
S'l'
p1802
sg22
F3.4347226565587334
sg19
I99
sg24
F3.4681340944953263
sg21
I101
sa(dp1803
g30
I0
sg20
F1.5163423877675086
sg27
F3.1677079594810493
sg32
g40
(g69
S'\xff\xff\xff\xff'
p1804
tp1805
Rp1806
sg39
g49
sg25
I130
sg14
I125
sg17
I63
sg37
g38
sg15
F880.5386529762181
sg31
g40
(g44
S'\xa1\xfaq\x1b\x82`\xbc?'
p1807
tp1808
Rp1809
sg50
g55
sg23
I128
sg26
I7
sg33
g40
(g69
S'\x01\x00\x00\x00'
p1810
tp1811
Rp1812
sg18
F1.4831531281815842
sg16
F1.0494299073470756
sg29
I0
sg28
g118
sg22
F2.1335599601152353
sg19
I89
sg24
F2.166989362973254
sg21
I91
sa(dp1813
g30
I0
sg20
F1.8666878823423758
sg27
F2.7675285302684642
sg32
g40
(g69
S'\x01\x00\x00\x00'
p1814
tp1815
Rp1816
sg39
g49
sg25
I147
sg14
I126
sg17
I60
sg37
g38
sg15
F883.7076687079389
sg31
g40
(g44
S'\xa1\xfaq\x1b\x82`\xbc?'
p1817
tp1818
Rp1819
sg50
g55
sg23
I145
sg26
I3
sg33
g40
(g69
S'\xff\xff\xff\xff'
p1820
tp1821
Rp1822
sg18
F1.8334472944261506
sg16
F0.9994592194561847
sg29
I1
sg28
S'a'
p1823
sg22
F2.417164704122115
sg19
I110
sg24
F2.4505387457320467
sg21
I112
sa(dp1824
g30
I0
sg20
F1.666445099399425
sg27
F3.884919335716404
sg32
g40
(g69
S'\x01\x00\x00\x00'
p1825
tp1826
Rp1827
sg39
g49
sg25
I173
sg14
I127
sg17
I67
sg37
g38
sg15
F886.493322368653
sg31
g40
(g44
S'\x1ci\xcf\xa9\xb8R\xb8?'
p1828
tp1829
Rp1830
sg50
g55
sg23
I171
sg26
I41
sg33
g40
(g69
S'\xff\xff\xff\xff'
p1831
tp1832
Rp1833
sg18
F1.633251073595602
sg16
F1.1161413274239749
sg29
I0
sg28
g118
sg22
F2.850792600947898
sg19
I98
sg24
F2.884229703049641
sg21
I100
sa(dp1834
g30
I1
sg20
F1.5330966853071004
sg27
F2.55061357509112
sg32
g40
(g69
S'\xff\xff\xff\xff'
p1835
tp1836
Rp1837
sg39
g49
sg25
I137
sg14
I128
sg17
I64
sg37
g38
sg15
F890.3795414107735
sg31
g40
(g44
S'\xcat\xe6J\x94\x06\xbb?'
p1838
tp1839
Rp1840
sg50
g55
sg23
I135
sg26
I13
sg33
g40
(g69
S'\x01\x00\x00\x00'
p1841
tp1842
Rp1843
sg18
F1.4998256670078263
sg16
F1.066122610878665
sg29
I0
sg28
S'l'
p1844
sg22
F2.25049211026635
sg19
I90
sg24
F2.2837554293219
sg21
I92
sa(dp1845
g30
I1
sg20
F1.4663251377642155
sg27
F2.550540982163511
sg32
g40
(g69
S'\x01\x00\x00\x00'
p1846
tp1847
Rp1848
sg39
g49
sg25
I133
sg14
I129
sg17
I60
sg37
g38
sg15
F892.9483453765861
sg31
g40
(g44
S'\xcat\xe6J\x94\x06\xbb?'
p1849
tp1850
Rp1851
sg50
g55
sg23
I131
sg26
I13
sg33
g40
(g69
S'\x01\x00\x00\x00'
p1852
tp1853
Rp1854
sg18
F1.433090782549698
sg16
F0.999395425664261
sg29
I0
sg28
S'l'
p1855
sg22
F2.1835948083316907
sg19
I86
sg24
F2.216980215453077
sg21
I88
sa(dp1856
g30
I1
sg20
F1.5998037058743648
sg27
F3.7848338740877807
sg32
g40
(g69
S'\xff\xff\xff\xff'
p1857
tp1858
Rp1859
sg39
g49
sg25
I202
sg14
I130
sg17
I61
sg37
g38
sg15
F895.5170367866522
sg31
g40
(g44
S'\xa1\xfaq\x1b\x82`\xbc?'
p1860
tp1861
Rp1862
sg50
g55
sg23
I200
sg26
I74
sg33
g40
(g69
S'\xff\xff\xff\xff'
p1863
tp1864
Rp1865
sg18
F1.566438463400118
sg16
F1.016023968870286
sg29
I0
sg28
S'a'
p1866
sg22
F3.334506674320437
sg19
I94
sg24
F3.367841853061691
sg21
I96
sa(dp1867
g30
I1
sg20
F1.8499731809133664
sg27
F3.7682592255878262
sg32
g40
(g69
S'\xff\xff\xff\xff'
p1868
tp1869
Rp1870
sg39
g49
sg25
I203
sg14
I131
sg17
I65
sg37
g38
sg15
F899.3199690270121
sg31
g40
(g44
S'\xcat\xe6J\x94\x06\xbb?'
p1871
tp1872
Rp1873
sg50
g55
sg23
I201
sg26
I60
sg33
g40
(g69
S'\xff\xff\xff\xff'
p1874
tp1875
Rp1876
sg18
F1.8166625665035099
sg16
F1.082824113604147
sg29
I0
sg28
S'a'
p1877
sg22
F3.3511931451503187
sg19
I109
sg24
F3.3846702100127004
sg21
I111
sa(dp1878
g30
I1
sg20
F1.7834219785872847
sg27
F4.118707376881503
sg32
g40
(g69
S'\x01\x00\x00\x00'
p1879
tp1880
Rp1881
sg39
g49
sg25
I188
sg14
I132
sg17
I69
sg37
g38
sg15
F903.1060890422086
sg31
g40
(g44
S'\xf3\xeeZz\xa6\xac\xb9?'
p1882
tp1883
Rp1884
sg50
g55
sg23
I186
sg26
I49
sg33
g40
(g69
S'\xff\xff\xff\xff'
p1885
tp1886
Rp1887
sg18
F1.750128595798742
sg16
F1.1496425899094902
sg29
I0
sg28
S'a'
p1888
sg22
F3.1011325594154187
sg19
I105
sg24
F3.1345557295135222
sg21
I107
sa(dp1889
g30
I0
sg20
F1.883694788615685
sg27
F3.9520160848041996
sg32
g40
(g69
S'\xff\xff\xff\xff'
p1890
tp1891
Rp1892
sg39
g49
sg25
I177
sg14
I133
sg17
I64
sg37
g38
sg15
F918.384487627889
sg31
g40
(g44
S'\xf3\xeeZz\xa6\xac\xb9?'
p1893
tp1894
Rp1895
sg50
g55
sg23
I175
sg26
I32
sg33
g40
(g69
S'\xff\xff\xff\xff'
p1896
tp1897
Rp1898
sg18
F1.8504549339413643
sg16
F1.0664089496131055
sg29
I0
sg28
g118
sg22
F2.9179095147410408
sg19
I111
sg24
F2.9512710908893496
sg21
I113
sa(dp1899
g30
I0
sg20
F1.6332195433205925
sg27
F4.101953445933759
sg32
g40
(g69
S'\x01\x00\x00\x00'
p1900
tp1901
Rp1902
sg39
g49
sg25
I186
sg14
I134
sg17
I62
sg37
g38
sg15
F922.3378679461894
sg31
g40
(g44
S'\x1ci\xcf\xa9\xb8R\xb8?'
p1903
tp1904
Rp1905
sg50
g55
sg23
I184
sg26
I56
sg33
g40
(g69
S'\x01\x00\x00\x00'
p1906
tp1907
Rp1908
sg18
F1.5999125951784663
sg16
F1.0328332610079087
sg29
I0
sg28
g118
sg22
F3.067816078895703
sg19
I96
sg24
F3.101199286233168
sg21
I98
sa(dp1909
g30
I1
sg20
F1.616530139464885
sg27
F3.1345033013494685
sg32
g40
(g69
S'\xff\xff\xff\xff'
p1910
tp1911
Rp1912
sg39
g49
sg25
I169
sg14
I135
sg17
I70
sg37
g38
sg15
F926.4411177989095
sg31
g40
(g44
S'\xcat\xe6J\x94\x06\xbb?'
p1913
tp1914
Rp1915
sg50
g55
sg23
I167
sg26
I40
sg33
g40
(g69
S'\x01\x00\x00\x00'
p1916
tp1917
Rp1918
sg18
F1.583280385704711
sg16
F1.1662912977626547
sg29
I0
sg28
S'l'
p1919
sg22
F2.7842303996440023
sg19
I95
sg24
F2.8176224061171524
sg21
I97
sa(dp1920
g30
I1
sg20
F1.799822477332782
sg27
F2.9842444049427286
sg32
g40
(g69
S'\x01\x00\x00\x00'
p1921
tp1922
Rp1923
sg39
g49
sg25
I156
sg14
I136
sg17
I63
sg37
g38
sg15
F929.5937476971303
sg31
g40
(g44
S'\xcat\xe6J\x94\x06\xbb?'
p1924
tp1925
Rp1926
sg50
g55
sg23
I154
sg26
I16
sg33
g40
(g69
S'\x01\x00\x00\x00'
p1927
tp1928
Rp1929
sg18
F1.7666101199574769
sg16
F1.0493426491739228
sg29
I0
sg28
S'l'
p1930
sg22
F2.5671874902327545
sg19
I106
sg24
F2.6005083703785203
sg21
I108
sa(dp1931
g30
I1
sg20
F1.8165247133001685
sg27
F3.151069517247379
sg32
g40
(g69
S'\xff\xff\xff\xff'
p1932
tp1933
Rp1934
sg39
g49
sg25
I168
sg14
I137
sg17
I69
sg37
g38
sg15
F932.5960200752597
sg31
g40
(g44
S'\xa1\xfaq\x1b\x82`\xbc?'
p1935
tp1936
Rp1937
sg50
g55
sg23
I166
sg26
I27
sg33
g40
(g69
S'\x01\x00\x00\x00'
p1938
tp1939
Rp1940
sg18
F1.7832210648339242
sg16
F1.1494842053507455
sg29
I0
sg28
S'l'
p1941
sg22
F2.767328349815216
sg19
I107
sg24
F2.8006998249911703
sg21
I109
sa(dp1942
g30
I1
sg20
F1.7331411209888756
sg27
F3.3678869486320764
sg32
g40
(g69
S'\x01\x00\x00\x00'
p1943
tp1944
Rp1945
sg39
g49
sg25
I181
sg14
I138
sg17
I66
sg37
g38
sg15
F935.7651993244071
sg31
g40
(g44
S'\xcat\xe6J\x94\x06\xbb?'
p1946
tp1947
Rp1948
sg50
g55
sg23
I179
sg26
I45
sg33
g40
(g69
S'\x01\x00\x00\x00'
p1949
tp1950
Rp1951
sg18
F1.6999056658823974
sg16
F1.0993628322030418
sg29
I0
sg28
S'l'
p1952
sg22
F2.984172545315232
sg19
I102
sg24
F3.017651443311479
sg21
I104
sa(dp1953
g30
I1
sg20
F1.8165408450295217
sg27
F3.501288157538511
sg32
g40
(g69
S'\xff\xff\xff\xff'
p1954
tp1955
Rp1956
sg39
g49
sg25
I191
sg14
I139
sg17
I68
sg37
g38
sg15
F939.1511769401259
sg31
g40
(g44
S'\xcat\xe6J\x94\x06\xbb?'
p1957
tp1958
Rp1959
sg50
g55
sg23
I189
sg26
I50
sg33
g40
(g69
S'\x01\x00\x00\x00'
p1960
tp1961
Rp1962
sg18
F1.7833064898150042
sg16
F1.1328145994921215
sg29
I0
sg28
S'l'
p1963
sg22
F3.15103908686433
sg19
I107
sg24
F3.1844178946339525
sg21
I109
sa(dp1964
g30
I0
sg20
F1.6498301215469837
sg27
F4.385434635390993
sg32
g40
(g69
S'\xff\xff\xff\xff'
p1965
tp1966
Rp1967
sg39
g49
sg25
I203
sg14
I140
sg17
I68
sg37
g38
sg15
F942.6705073695048
sg31
g40
(g44
S'\x1ci\xcf\xa9\xb8R\xb8?'
p1968
tp1969
Rp1970
sg50
g55
sg23
I201
sg26
I72
sg33
g40
(g69
S'\xff\xff\xff\xff'
p1971
tp1972
Rp1973
sg18
F1.6165187738952227
sg16
F1.1328864591778256
sg29
I0
sg28
g118
sg22
F3.3512107434216887
sg19
I97
sg24
F3.3845631537842564
sg21
I99
sa(dp1974
g30
I1
sg20
F1.9000729229301214
sg27
F3.084505116159562
sg32
g40
(g69
S'\x01\x00\x00\x00'
p1975
tp1976
Rp1977
sg39
g49
sg25
I159
sg14
I141
sg17
I72
sg37
g38
sg15
F947.0572336454643
sg31
g40
(g44
S'\xcat\xe6J\x94\x06\xbb?'
p1978
tp1979
Rp1980
sg50
g55
sg23
I157
sg26
I13
sg33
g40
(g69
S'\xff\xff\xff\xff'
p1981
tp1982
Rp1983
sg18
F1.8668477334431373
sg16
F1.1996550736948848
sg29
I0
sg28
S'a'
p1984
sg22
F2.6173422268475406
sg19
I112
sg24
F2.650710035697557
sg21
I114
sa(dp1985
g30
I1
sg20
F1.7832525951089337
sg27
F3.0008791807922535
sg32
g40
(g69
S'\xff\xff\xff\xff'
p1986
tp1987
Rp1988
sg39
g49
sg25
I160
sg14
I142
sg17
I72
sg37
g38
sg15
F950.1597568357829
sg31
g40
(g44
S'\xcat\xe6J\x94\x06\xbb?'
p1989
tp1990
Rp1991
sg50
g55
sg23
I158
sg26
I21
sg33
g40
(g69
S'\x01\x00\x00\x00'
p1992
tp1993
Rp1994
sg18
F1.7498972516623326
sg16
F1.1994809239986353
sg29
I0
sg28
S'l'
p1995
sg22
F2.6339256743667647
sg19
I105
sg24
F2.6674170378246345
sg21
I107
sa(dp1996
g30
I1
sg20
F1.8832786625716835
sg27
F3.367951109074056
sg32
g40
(g69
S'\x01\x00\x00\x00'
p1997
tp1998
Rp1999
sg39
g49
sg25
I182
sg14
I143
sg17
I72
sg37
g38
sg15
F953.1787552808528
sg31
g40
(g44
S'\xcat\xe6J\x94\x06\xbb?'
p2000
tp2001
Rp2002
sg50
g55
sg23
I180
sg26
I37
sg33
g40
(g69
S'\xff\xff\xff\xff'
p2003
tp2004
Rp2005
sg18
F1.8499852797831409
sg16
F1.1994757911888883
sg29
I0
sg28
S'a'
p2006
sg22
F3.000867815280799
sg19
I111
sg24
F3.034265687863808
sg21
I113
sa(dp2007
g30
I1
sg20
F1.6331234860699624
sg27
F3.217767005378846
sg32
g40
(g69
S'\xff\xff\xff\xff'
p2008
tp2009
Rp2010
sg39
g49
sg25
I172
sg14
I144
sg17
I66
sg37
g38
sg15
F956.5647317966796
sg31
g40
(g44
S'\xa1\xfaq\x1b\x82`\xbc?'
p2011
tp2012
Rp2013
sg50
g55
sg23
I170
sg26
I42
sg33
g40
(g69
S'\xff\xff\xff\xff'
p2014
tp2015
Rp2016
sg18
F1.5998150713858195
sg16
F1.099422226427123
sg29
I0
sg28
S'a'
p2017
sg22
F2.834120062063448
sg19
I96
sg24
F2.8674754055100493
sg21
I98
sa(dp2018
g30
I1
sg20
F1.683109205798246
sg27
F3.618091253680177
sg32
g40
(g69
S'\x01\x00\x00\x00'
p2019
tp2020
Rp2021
sg39
g49
sg25
I198
sg14
I145
sg17
I61
sg37
g38
sg15
F959.8006451970432
sg31
g40
(g44
S'\xf3\xeeZz\xa6\xac\xb9?'
p2022
tp2023
Rp2024
sg50
g55
sg23
I196
sg26
I65
sg33
g40
(g69
S'\xff\xff\xff\xff'
p2025
tp2026
Rp2027
sg18
F1.6498209558194503
sg16
F1.0160408338997513
sg29
I0
sg28
S'a'
p2028
sg22
F3.2678025868954137
sg19
I99
sg24
F3.301128966442775
sg21
I101
sa(dp2029
g30
I1
sg20
F1.9167080653714947
sg27
F3.4012063622358255
sg32
g40
(g69
S'\xff\xff\xff\xff'
p2030
tp2031
Rp2032
sg39
g49
sg25
I180
sg14
I146
sg17
I67
sg37
g38
sg15
F963.4367805556976
sg31
g40
(g44
S'x\x80\xfd\xebo\xba\xbd?'
p2033
tp2034
Rp2035
sg50
g55
sg23
I178
sg26
I33
sg33
g40
(g69
S'\xff\xff\xff\xff'
p2036
tp2037
Rp2038
sg18
F1.8834759099408984
sg16
F1.1161673581809737
sg29
I0
sg28
S'a'
p2039
sg22
F2.9676492251455784
sg19
I113
sg24
F3.000890913011972
sg21
I115
sa(dp2040
g30
I0
sg20
F1.9331763908849098
sg27
F4.018222654180136
sg32
g40
(g69
S'\x01\x00\x00\x00'
p2041
tp2042
Rp2043
sg39
g49
sg25
I181
sg14
I147
sg17
I71
sg37
g38
sg15
F966.8562092054635
sg31
g40
(g44
S'\xcat\xe6J\x94\x06\xbb?'
p2044
tp2045
Rp2046
sg50
g55
sg23
I179
sg26
I33
sg33
g40
(g69
S'\xff\xff\xff\xff'
p2047
tp2048
Rp2049
sg18
F1.8998775085783564
sg16
F1.1827108613215387
sg29
I0
sg28
g118
sg22
F2.984059622976929
sg19
I114
sg24
F3.0174347644206136
sg21
I116
sa(dp2050
g30
I1
sg20
F1.8166904304525815
sg27
F3.317938258580398
sg32
g40
(g69
S'\x01\x00\x00\x00'
p2051
tp2052
Rp2053
sg39
g49
sg25
I178
sg14
I148
sg17
I71
sg37
g38
sg15
F970.8758100250852
sg31
g40
(g44
S'\xf3\xeeZz\xa6\xac\xb9?'
p2054
tp2055
Rp2056
sg50
g55
sg23
I176
sg26
I37
sg33
g40
(g69
S'\x01\x00\x00\x00'
p2057
tp2058
Rp2059
sg18
F1.7833838489023037
sg16
F1.1829293732880615
sg29
I0
sg28
S'l'
p2060
sg22
F2.934296448191162
sg19
I107
sg24
F2.967659857473336
sg21
I109
sa(dp2061
g30
I1
sg20
F1.5663893348537385
sg27
F3.2010196737828664
sg32
g40
(g69
S'\x01\x00\x00\x00'
p2062
tp2063
Rp2064
sg39
g49
sg25
I173
sg14
I149
sg17
I67
sg37
g38
sg15
F974.2118635150837
sg31
g40
(g44
S'\xa1\xfaq\x1b\x82`\xbc?'
p2065
tp2066
Rp2067
sg50
g55
sg23
I171
sg26
I47
sg33
g40
(g69
S'\x01\x00\x00\x00'
p2068
tp2069
Rp2070
sg18
F1.533102918008808
sg16
F1.116169924614951
sg29
I0
sg28
S'l'
p2071
sg22
F2.850874726253096
sg19
I92
sg24
F2.8841464777942747
sg21
I94
sa(dp2072
g30
I1
sg20
F1.532976797025185
sg27
F2.8174783201538958
sg32
g40
(g69
S'\xff\xff\xff\xff'
p2073
tp2074
Rp2075
sg39
g49
sg25
I138
sg14
I150
sg17
I63
sg37
g38
sg15
F977.4311179418582
sg31
g40
(g44
S'\xf3\xeeZz\xa6\xac\xb9?'
p2076
tp2077
Rp2078
sg50
g55
sg23
I136
sg26
I14
sg33
g40
(g69
S'\xff\xff\xff\xff'
p2079
tp2080
Rp2081
sg18
F1.499732542783022
sg16
F1.0493092857650481
sg29
I0
sg28
S'a'
p2082
sg22
F2.267021663079504
sg19
I90
sg24
F2.3003843391197734
sg21
I92
sa(dp2083
g30
I0
sg20
F1.6498084903578274
sg27
F3.684913396311458
sg32
g40
(g69
S'\x01\x00\x00\x00'
p2084
tp2085
Rp2086
sg39
g49
sg25
I161
sg14
I151
sg17
I63
sg37
g38
sg15
F980.2666161693633
sg31
g40
(g44
S'\xcat\xe6J\x94\x06\xbb?'
p2087
tp2088
Rp2089
sg50
g55
sg23
I159
sg26
I30
sg33
g40
(g69
S'\x01\x00\x00\x00'
p2090
tp2091
Rp2092
sg18
F1.6165602031978779
sg16
F1.049347048799973
sg29
I0
sg28
g118
sg22
F2.6506073790369555
sg19
I97
sg24
F2.684085543791298
sg21
I99
sa(dp2093
g30
I0
sg20
F1.7999137684237212
sg27
F2.9842092083999887
sg32
g40
(g69
S'\x01\x00\x00\x00'
p2094
tp2095
Rp2096
sg39
g49
sg25
I155
sg14
I152
sg17
I71
sg37
g38
sg15
F983.9528311052709
sg31
g40
(g44
S'\xf3\xeeZz\xa6\xac\xb9?'
p2097
tp2098
Rp2099
sg50
g55
sg23
I153
sg26
I15
sg33
g40
(g69
S'\xff\xff\xff\xff'
p2100
tp2101
Rp2102
sg18
F1.7666636480716988
sg16
F1.1828688792302273
sg29
I0
sg28
S'l'
p2103
sg22
F2.5505666463868693
sg19
I106
sg24
F2.5839729514555074
sg21
I108
sa(dp2104
g30
I1
sg20
F1.8998654098249972
sg27
F4.585466972261202
sg32
g40
(g69
S'\xff\xff\xff\xff'
p2105
tp2106
Rp2107
sg39
g49
sg25
I222
sg14
I153
sg17
I64
sg37
g38
sg15
F986.9552882653661
sg31
g40
(g44
S'\xcat\xe6J\x94\x06\xbb?'
p2108
tp2109
Rp2110
sg50
g55
sg23
I220
sg26
I76
sg33
g40
(g69
S'\xff\xff\xff\xff'
p2111
tp2112
Rp2113
sg18
F1.866635454178322
sg16
F1.06600015622098
sg29
I0
sg28
S'a'
p2114
sg22
F3.667981649399735
sg19
I112
sg24
F3.7013285603024997
sg21
I114
sa(dp2115
g30
I1
sg20
F1.6664066031808034
sg27
F3.050909262849018
sg32
g40
(g69
S'\x01\x00\x00\x00'
p2116
tp2117
Rp2118
sg39
g49
sg25
I163
sg14
I154
sg17
I63
sg37
g38
sg15
F991.5588316061185
sg31
g40
(g44
S'\xa1\xfaq\x1b\x82`\xbc?'
p2119
tp2120
Rp2121
sg50
g55
sg23
I161
sg26
I31
sg33
g40
(g69
S'\xff\xff\xff\xff'
p2122
tp2123
Rp2124
sg18
F1.6331645486643538
sg16
F1.0493796789087355
sg29
I0
sg28
S'a'
p2125
sg22
F2.68392165977275
sg19
I98
sg24
F2.717302667326294
sg21
I100
sa(dp2126
g30
I0
sg20
F1.9666948850499466
sg27
F3.6681638649315573
sg32
g40
(g69
S'\xff\xff\xff\xff'
p2127
tp2128
Rp2129
sg39
g49
sg25
I160
sg14
I155
sg17
I72
sg37
g38
sg15
F994.6278267698362
sg31
g40
(g44
S'\xa1\xfaq\x1b\x82`\xbc?'
p2130
tp2131
Rp2132
sg50
g55
sg23
I158
sg26
I10
sg33
g40
(g69
S'\x01\x00\x00\x00'
p2133
tp2134
Rp2135
sg18
F1.9334055351791903
sg16
F1.1995296859531663
sg29
I0
sg28
g118
sg22
F2.633955004857853
sg19
I116
sg24
F2.667331612901762
sg21
I118
sa(dp2136
g30
I0
sg20
F1.9000611906521954
sg27
F4.535516815667506
sg32
g40
(g69
S'\xff\xff\xff\xff'
p2137
tp2138
Rp2139
sg39
g49
sg25
I212
sg14
I156
sg17
I62
sg37
g38
sg15
F998.2972786090686
sg31
g40
(g44
S'\xf3\xeeZz\xa6\xac\xb9?'
p2140
tp2141
Rp2142
sg50
g55
sg23
I210
sg26
I66
sg33
g40
(g69
S'\x01\x00\x00\x00'
p2143
tp2144
Rp2145
sg18
F1.8667619418120012
sg16
F1.032776799867861
sg29
I0
sg28
g118
sg22
F3.501376148953568
sg19
I112
sg24
F3.5347329588839784
sg21
I114
sa(dp2146
g30
I1
sg20
F1.6332437410019338
sg27
F3.017810561112128
sg32
g40
(g69
S'\x01\x00\x00\x00'
p2147
tp2148
Rp2149
sg39
g49
sg25
I160
sg14
I157
sg17
I65
sg37
g38
sg15
F1002.8341064967681
sg31
g40
(g44
S'\xcat\xe6J\x94\x06\xbb?'
p2150
tp2151
Rp2152
sg50
g55
sg23
I158
sg26
I30
sg33
g40
(g69
S'\xff\xff\xff\xff'
p2153
tp2154
Rp2155
sg18
F1.5999694230267778
sg16
F1.082883141178172
sg29
I0
sg28
S'a'
p2156
sg22
F2.63408149254974
sg19
I96
sg24
F2.667565156763885
sg21
I98
sa(dp2157
g30
I1
sg20
F1.8165221469243988
sg27
F3.2511007175780833
sg32
g40
(g69
S'\x01\x00\x00\x00'
p2158
tp2159
Rp2160
sg39
g49
sg25
I170
sg14
I158
sg17
I66
sg37
g38
sg15
F1005.8700223901542
sg31
g40
(g44
S'\xcat\xe6J\x94\x06\xbb?'
p2161
tp2162
Rp2163
sg50
g55
sg23
I168
sg26
I29
sg33
g40
(g69
S'\x01\x00\x00\x00'
p2164
tp2165
Rp2166
sg18
F1.7832129989983514
sg16
F1.0993752976646647
sg29
I0
sg28
S'l'
p2167
sg22
F2.800673060992267
sg19
I107
sg24
F2.8340496689779684
sg21
I109
sa(dp2168
g30
I1
sg20
F1.4828880540444516
sg27
F2.8840427212999202
sg32
g40
(g69
S'\xff\xff\xff\xff'
p2169
tp2170
Rp2171
sg39
g49
sg25
I151
sg14
I159
sg17
I60
sg37
g38
sg15
F1009.1391298163217
sg31
g40
(g44
S'\xcat\xe6J\x94\x06\xbb?'
p2172
tp2173
Rp2174
sg50
g55
sg23
I149
sg26
I30
sg33
g40
(g69
S'\xff\xff\xff\xff'
p2175
tp2176
Rp2177
sg18
F1.4495866053621285
sg16
F0.9993503300938755
sg29
I0
sg28
S'a'
p2178
sg22
F2.4837456036475487
sg19
I87
sg24
F2.5172028703964315
sg21
I89
sa(dp2179
g30
I1
sg20
F1.7997876473818906
sg27
F3.5512955085141584
sg32
g40
(g69
S'\xff\xff\xff\xff'
p2180
tp2181
Rp2182
sg39
g49
sg25
I187
sg14
I160
sg17
I61
sg37
g38
sg15
F1012.0414985817042
sg31
g40
(g44
S'\xcat\xe6J\x94\x06\xbb?'
p2183
tp2184
Rp2185
sg50
g55
sg23
I185
sg26
I47
sg33
g40
(g69
S'\xff\xff\xff\xff'
p2186
tp2187
Rp2188
sg18
F1.7665224951924756
sg16
F1.0159854725934565
sg29
I0
sg28
S'a'
p2189
sg22
F3.084333899547346
sg19
I106
sg24
F3.117660279094707
sg21
I108
sa(dp2190
g30
I0
sg20
F1.7665257948101498
sg27
F3.6848309042979963
sg32
g40
(g69
S'\x01\x00\x00\x00'
p2191
tp2192
Rp2193
sg39
g49
sg25
I161
sg14
I161
sg17
I70
sg37
g38
sg15
F1015.6109232535237
sg31
g40
(g44
S'\xf3\xeeZz\xa6\xac\xb9?'
p2194
tp2195
Rp2196
sg50
g55
sg23
I159
sg26
I23
sg33
g40
(g69
S'\xff\xff\xff\xff'
p2197
tp2198
Rp2199
sg18
F1.7332404779153876
sg16
F1.1661805752082728
sg29
I0
sg28
g118
sg22
F2.6506433088216
sg19
I104
sg24
F2.684051813732367
sg21
I106
sa(dp2200
g30
I0
sg20
F1.483074302552268
sg27
F2.7675508948159404
sg32
g40
(g69
S'\xff\xff\xff\xff'
p2201
tp2202
Rp2203
sg39
g49
sg25
I145
sg14
I162
sg17
I62
sg37
g38
sg15
F1019.297054230934
sg31
g40
(g44
S'x\x80\xfd\xebo\xba\xbd?'
p2204
tp2205
Rp2206
sg50
g55
sg23
I143
sg26
I24
sg33
g40
(g69
S'\xff\xff\xff\xff'
p2207
tp2208
Rp2209
sg18
F1.4498359143617563
sg16
F1.032834360958077
sg29
I0
sg28
S'l'
p2210
sg22
F2.3838221928454004
sg19
I87
sg24
F2.417295591381844
sg21
I89
sa(dp2211
g30
I1
sg20
F1.8666647846112028
sg27
F3.1511853726115078
sg32
g40
(g69
S'\xff\xff\xff\xff'
p2212
tp2213
Rp2214
sg39
g49
sg25
I162
sg14
I163
sg17
I63
sg37
g38
sg15
F1022.0825902031502
sg31
g40
(g44
S'\xa1\xfaq\x1b\x82`\xbc?'
p2215
tp2216
Rp2217
sg50
g55
sg23
I160
sg26
I18
sg33
g40
(g69
S'\xff\xff\xff\xff'
p2218
tp2219
Rp2220
sg18
F1.8334351956145838
sg16
F1.0494148754514754
sg29
I0
sg28
S'a'
p2221
sg22
F2.667362409818452
sg19
I110
sg24
F2.7007074875873514
sg21
I112
sa(dp2222
g30
I1
sg20
F1.8833127592224628
sg27
F2.934274816943798
sg32
g40
(g69
S'\xff\xff\xff\xff'
p2223
tp2224
Rp2225
sg39
g49
sg25
I145
sg14
I164
sg17
I61
sg37
g38
sg15
F1025.2518039155402
sg31
g40
(g44
S'\xa1\xfaq\x1b\x82`\xbc?'
p2226
tp2227
Rp2228
sg50
g55
sg23
I143
sg26
I0
sg33
g40
(g69
S'\xff\xff\xff\xff'
p2229
tp2230
Rp2231
sg18
F1.8499981118366122
sg16
F1.0160822631441988
sg29
I0
sg28
S'a'
p2232
sg22
F2.3838474903604947
sg19
I111
sg24
F2.417086611792911
sg21
I113
sa(dp2233
g30
I1
sg20
F1.6664678305387497
sg27
F3.9350524410256185
sg32
g40
(g69
S'\x01\x00\x00\x00'
p2234
tp2235
Rp2236
sg39
g49
sg25
I176
sg14
I165
sg17
I68
sg37
g38
sg15
F1028.20407334232
sg31
g40
(g44
S'\x00\x00\x00\x00\x00\x00\x00\x00'
p2237
tp2238
Rp2239
sg50
g55
sg23
I174
sg26
F44.0
sg33
g40
(g69
S'\x01\x00\x00\x00'
p2240
tp2241
Rp2242
sg18
F1.633229442348238
sg16
F1.132781969383359
sg29
I0
sg28
g118
sg22
F2.9008890432305634
sg19
I98
sg24
F2.9343059805687517
sg21
I100
sa(dp2243
g30
I0
sg20
F1.6999181313440204
sg27
F3.518052354163956
sg32
g40
(g69
S'\x01\x00\x00\x00'
p2244
tp2245
Rp2246
sg39
g49
sg25
I199
sg14
I166
sg17
I67
sg37
g38
sg15
F1032.1404379552696
sg31
g40
(g44
S'\xa1\xfaq\x1b\x82`\xbc?'
p2247
tp2248
Rp2249
sg50
g55
sg23
I197
sg26
I65
sg33
g40
(g69
S'\x01\x00\x00\x00'
p2250
tp2251
Rp2252
sg18
F1.666582219360862
sg16
F1.116157459153328
sg29
I0
sg28
S'a'
p2253
sg22
F3.2845689832465723
sg19
I100
sg24
F3.3179316592868418
sg21
I102
sa(dp2254
g30
I1
sg20
F1.7330527629819699
sg27
F2.8673203206271864
sg32
g40
(g69
S'\xff\xff\xff\xff'
p2255
tp2256
Rp2257
sg39
g49
sg25
I154
sg14
I167
sg17
I68
sg37
g38
sg15
F1035.6766169063048
sg31
g40
(g44
S'\xf3\xeeZz\xa6\xac\xb9?'
p2258
tp2259
Rp2260
sg50
g55
sg23
I152
sg26
I18
sg33
g40
(g69
S'\x01\x00\x00\x00'
p2261
tp2262
Rp2263
sg18
F1.6998077754396945
sg16
F1.1326976442942396
sg29
I0
sg28
S'l'
p2264
sg22
F2.533720691106282
sg19
I102
sg24
F2.567096199200023
sg21
I104
sa(dp2265
g30
I0
sg20
F1.7998507079319097
sg27
F3.90156767697772
sg32
g40
(g69
S'\xff\xff\xff\xff'
p2266
tp2267
Rp2268
sg39
g49
sg25
I174
sg14
I168
sg17
I62
sg37
g38
sg15
F1038.562231007556
sg31
g40
(g44
S'\xcat\xe6J\x94\x06\xbb?'
p2269
tp2270
Rp2271
sg50
g55
sg23
I172
sg26
I34
sg33
g40
(g69
S'\xff\xff\xff\xff'
p2272
tp2273
Rp2274
sg18
F1.7665723570389673
sg16
F1.0326371135306545
sg29
I0
sg28
g118
sg22
F2.8674721058341675
sg19
I106
sg24
F2.9008358817663975
sg21
I108
sa(dp2275
g30
I1
sg20
F1.733309771225322
sg27
F4.168688330391888
sg32
g40
(g69
S'\x01\x00\x00\x00'
p2276
tp2277
Rp2278
sg39
g49
sg25
I190
sg14
I169
sg17
I68
sg37
g38
sg15
F1042.4650998574216
sg31
g40
(g44
S'\x00\x00\x00\x00\x00\x00\x00\x00'
p2279
tp2280
Rp2281
sg50
g55
sg23
I188
sg26
F54.0
sg33
g40
(g69
S'\x01\x00\x00\x00'
p2282
tp2283
Rp2284
sg18
F1.700010155676864
sg16
F1.1329003911814652
sg29
I0
sg28
g118
sg22
F3.1345293321064673
sg19
I102
sg24
F3.1678399465745315
sg21
I104
sa(dp2285
g30
I1
sg20
F1.9834246183163486
sg27
F3.8683113238657825
sg32
g40
(g69
S'\x01\x00\x00\x00'
p2286
tp2287
Rp2288
sg39
g49
sg25
I211
sg14
I170
sg17
I67
sg37
g38
sg15
F1046.6350919271936
sg31
g40
(g44
S'\xcat\xe6J\x94\x06\xbb?'
p2289
tp2290
Rp2291
sg50
g55
sg23
I209
sg26
I60
sg33
g40
(g69
S'\xff\xff\xff\xff'
p2292
tp2293
Rp2294
sg18
F1.9501378348795697
sg16
F1.116142793907784
sg29
I0
sg28
S'a'
p2295
sg22
F3.4847193752066232
sg19
I117
sg24
F3.5180142245371826
sg21
I119
sa(dp2296
g30
I1
sg20
F1.833271311596036
sg27
F3.4512947386247106
sg32
g40
(g69
S'\x01\x00\x00\x00'
p2297
tp2298
Rp2299
sg39
g49
sg25
I181
sg14
I171
sg17
I72
sg37
g38
sg15
F1050.521530214639
sg31
g40
(g44
S'\xcat\xe6J\x94\x06\xbb?'
p2300
tp2301
Rp2302
sg50
g55
sg23
I179
sg26
I39
sg33
g40
(g69
S'\xff\xff\xff\xff'
p2303
tp2304
Rp2305
sg18
F1.7999716961057857
sg16
F1.1995608495781198
sg29
I0
sg28
S'a'
p2306
sg22
F2.9842887672712095
sg19
I108
sg24
F3.0175795836839825
sg21
I110
sa(dp2307
g30
I1
sg20
F2.0334440680453554
sg27
F3.3512855361332186
sg32
g40
(g69
S'\xff\xff\xff\xff'
p2308
tp2309
Rp2310
sg39
g49
sg25
I181
sg14
I172
sg17
I72
sg37
g38
sg15
F1053.990860992286
sg31
g40
(g44
S'\xa1\xfaq\x1b\x82`\xbc?'
p2311
tp2312
Rp2313
sg50
g55
sg23
I179
sg26
I27
sg33
g40
(g69
S'\xff\xff\xff\xff'
p2314
tp2315
Rp2316
sg18
F2.0002141123986803
sg16
F1.1996041119564325
sg29
I0
sg28
S'a'
p2317
sg22
F2.9842407386167906
sg19
I120
sg24
F3.017612580442801
sg21
I122
sa(dp2318
g30
I1
sg20
F1.7832393964054063
sg27
F2.9008281824644655
sg32
g40
(g69
S'\xff\xff\xff\xff'
p2319
tp2320
Rp2321
sg39
g49
sg25
I151
sg14
I173
sg17
I62
sg37
g38
sg15
F1057.36017193523
sg31
g40
(g44
S'\x1ci\xcf\xa9\xb8R\xb8?'
p2322
tp2323
Rp2324
sg50
g55
sg23
I149
sg26
I12
sg33
g40
(g69
S'\x01\x00\x00\x00'
p2325
tp2326
Rp2327
sg18
F1.7499966087052599
sg16
F1.0327874321956187
sg29
I0
sg28
S'l'
p2328
sg22
F2.483904354798142
sg19
I105
sg24
F2.517225601535756
sg21
I107
sa(dp2329
g30
I1
sg20
F1.849896555126179
sg27
F3.7347696953220293
sg32
g40
(g69
S'\xff\xff\xff\xff'
p2330
tp2331
Rp2332
sg39
g49
sg25
I164
sg14
I174
sg17
I71
sg37
g38
sg15
F1060.279215805931
sg31
g40
(g44
S'\x00\x00\x00\x00\x00\x00\x00\x00'
p2333
tp2334
Rp2335
sg50
g55
sg23
I162
sg26
F21.0
sg33
g40
(g69
S'\xff\xff\xff\xff'
p2336
tp2337
Rp2338
sg18
F1.8166171042830683
sg16
F1.182757790083997
sg29
I0
sg28
g118
sg22
F2.700617296388373
sg19
I109
sg24
F2.734043766220566
sg21
I111
sa(dp2339
g30
I1
sg20
F1.5332198733231053
sg27
F2.8843855211744085
sg32
g40
(g69
S'\x01\x00\x00\x00'
p2340
tp2341
Rp2342
sg39
g49
sg25
I136
sg14
I175
sg17
I62
sg37
g38
sg15
F1064.0152837411733
sg31
g40
(g44
S'\xa1\xfaq\x1b\x82`\xbc?'
p2343
tp2344
Rp2345
sg50
g55
sg23
I134
sg26
I12
sg33
g40
(g69
S'\x01\x00\x00\x00'
p2346
tp2347
Rp2348
sg18
F1.4998549974989146
sg16
F1.0328369273920543
sg29
I0
sg28
S'l'
p2349
sg22
F2.233873466204386
sg19
I90
sg24
F2.267133485584054
sg21
I92
sa(dp2350
g30
I1
sg20
F1.7999108353978954
sg27
F3.768278290401213
sg32
g40
(g69
S'\xff\xff\xff\xff'
p2351
tp2352
Rp2353
sg39
g49
sg25
I205
sg14
I176
sg17
I60
sg37
g38
sg15
F1066.9176833035308
sg31
g40
(g44
S'\xcat\xe6J\x94\x06\xbb?'
p2354
tp2355
Rp2356
sg50
g55
sg23
I203
sg26
I65
sg33
g40
(g69
S'\x01\x00\x00\x00'
p2357
tp2358
Rp2359
sg18
F1.7666717139654793
sg16
F0.999345930526033
sg29
I0
sg28
S'l'
p2360
sg22
F3.3846243811422028
sg19
I106
sg24
F3.4179841241566464
sg21
I108
sa(dp2361
g30
I1
sg20
F1.466606343688909
sg27
F3.1846837020711973
sg32
g40
(g69
S'\x01\x00\x00\x00'
p2362
tp2363
Rp2364
sg39
g49
sg25
I168
sg14
I177
sg17
I61
sg37
g38
sg15
F1107.9994185234536
sg31
g40
(g44
S'\xcat\xe6J\x94\x06\xbb?'
p2365
tp2366
Rp2367
sg50
g55
sg23
I166
sg26
I48
sg33
g40
(g69
S'\xff\xff\xff\xff'
p2368
tp2369
Rp2370
sg18
F1.4333173604682088
sg16
F1.0163477039313875
sg29
I0
sg28
S'a'
p2371
sg22
F2.767732010455802
sg19
I86
sg24
F2.8010536238434725
sg21
I88
sa(dp2372
g30
I1
sg20
F1.4996691156411543
sg27
F3.117631315253675
sg32
g40
(g69
S'\x01\x00\x00\x00'
p2373
tp2374
Rp2375
sg39
g49
sg25
I169
sg14
I178
sg17
I62
sg37
g38
sg15
F1111.202353110246
sg31
g40
(g44
S'\xcat\xe6J\x94\x06\xbb?'
p2376
tp2377
Rp2378
sg50
g55
sg23
I167
sg26
I47
sg33
g40
(g69
S'\xff\xff\xff\xff'
p2379
tp2380
Rp2381
sg18
F1.4663383365259506
sg16
F1.0326459126663394
sg29
I0
sg28
S'a'
p2382
sg22
F2.7840863136807457
sg19
I88
sg24
F2.817463288316503
sg21
I90
sa(dp2383
g30
I1
sg20
F1.499705778725911
sg27
F4.1017708638100885
sg32
g40
(g69
S'\x01\x00\x00\x00'
p2384
tp2385
Rp2386
sg39
g49
sg25
I186
sg14
I179
sg17
I61
sg37
g38
sg15
F1114.338080958696
sg31
g40
(g44
S'\x00\x00\x00\x00\x00\x00\x00\x00'
p2387
tp2388
Rp2389
sg50
g55
sg23
I184
sg26
F64.0
sg33
g40
(g69
S'\x01\x00\x00\x00'
p2390
tp2391
Rp2392
sg18
F1.4664607912418433
sg16
F1.0161020612576976
sg29
I0
sg28
g118
sg22
F3.067698757047765
sg19
I88
sg24
F3.10100350540597
sg21
I90
sa(dp2393
g30
I1
sg20
F1.9668624353362247
sg27
F4.05192263063509
sg32
g40
(g69
S'\x01\x00\x00\x00'
p2394
tp2395
Rp2396
sg39
g49
sg25
I224
sg14
I180
sg17
I71
sg37
g38
sg15
F1118.441159228154
sg31
g40
(g44
S'\xcat\xe6J\x94\x06\xbb?'
p2397
tp2398
Rp2399
sg50
g55
sg23
I222
sg26
I74
sg33
g40
(g69
S'\x01\x00\x00\x00'
p2400
tp2401
Rp2402
sg18
F1.9336130482843146
sg16
F1.1829667696729302
sg29
I0
sg28
S'l'
p2403
sg22
F3.7016079330351204
sg19
I116
sg24
F3.734936512366403
sg21
I118
sa(dp2404
g30
I0
sg20
F1.5997721755993553
sg27
F3.718130153254606
sg32
g40
(g69
S'\xff\xff\xff\xff'
p2405
tp2406
Rp2407
sg39
g49
sg25
I163
sg14
I181
sg17
I68
sg37
g38
sg15
F1122.5111486948445
sg31
g40
(g44
S'\xf3\xeeZz\xa6\xac\xb9?'
p2408
tp2409
Rp2410
sg50
g55
sg23
I161
sg26
I35
sg33
g40
(g69
S'\xff\xff\xff\xff'
p2411
tp2412
Rp2413
sg18
F1.5665341540588997
sg16
F1.1328431967413053
sg29
I0
sg28
g118
sg22
F2.684002685244195
sg19
I94
sg24
F2.7174273218843155
sg21
I96
sa(dp2414
g30
I0
sg20
F1.6332785708946176
sg27
F3.8183619005721994
sg32
g40
(g69
S'\xff\xff\xff\xff'
p2415
tp2416
Rp2417
sg39
g49
sg25
I169
sg14
I182
sg17
I69
sg37
g38
sg15
F1126.2305741549353
sg31
g40
(g44
S'\xf3\xeeZz\xa6\xac\xb9?'
p2418
tp2419
Rp2420
sg50
g55
sg23
I167
sg26
I39
sg33
g40
(g69
S'\x01\x00\x00\x00'
p2421
tp2422
Rp2423
sg18
F1.6000339500023983
sg16
F1.1495699969818816
sg29
I0
sg28
g118
sg22
F2.7843425886821933
sg19
I96
sg24
F2.8176400043885224
sg21
I98
sa(dp2424
g30
I1
sg20
F1.7331865832675248
sg27
F2.8341017305501737
sg32
g40
(g69
S'\x01\x00\x00\x00'
p2425
tp2426
Rp2427
sg39
g49
sg25
I150
sg14
I183
sg17
I60
sg37
g38
sg15
F1130.050233928836
sg31
g40
(g44
S'\xcat\xe6J\x94\x06\xbb?'
p2428
tp2429
Rp2430
sg50
g55
sg23
I148
sg26
I14
sg33
g40
(g69
S'\x01\x00\x00\x00'
p2431
tp2432
Rp2433
sg18
F1.6999518614029512
sg16
F0.9993253992288373
sg29
I0
sg28
S'l'
p2434
sg22
F2.4671423580148257
sg19
I102
sg24
F2.5005218990845606
sg21
I104
sa(dp2435
g30
I0
sg20
F1.68327272310853
sg27
F3.6014425458270125
sg32
g40
(g69
S'\xff\xff\xff\xff'
p2436
tp2437
Rp2438
sg39
g49
sg25
I156
sg14
I184
sg17
I71
sg37
g38
sg15
F1132.9025550138904
sg31
g40
(g44
S'\xcat\xe6J\x94\x06\xbb?'
p2439
tp2440
Rp2441
sg50
g55
sg23
I154
sg26
I23
sg33
g40
(g69
S'\xff\xff\xff\xff'
p2442
tp2443
Rp2444
sg18
F1.6499683414003812
sg16
F1.1828681459301151
sg29
I0
sg28
g118
sg22
F2.5672905134852044
sg19
I99
sg24
F2.6007107505574822
sg21
I101
sa(dp2445
g30
I1
sg20
F1.9668367711710744
sg27
F3.4013420156552456
sg32
g40
(g69
S'\xff\xff\xff\xff'
p2446
tp2447
Rp2448
sg39
g49
sg25
I178
sg14
I185
sg17
I70
sg37
g38
sg15
F1136.505287367152
sg31
g40
(g44
S'x\x80\xfd\xebo\xba\xbd?'
p2449
tp2450
Rp2451
sg50
g55
sg23
I176
sg26
I28
sg33
g40
(g69
S'\xff\xff\xff\xff'
p2452
tp2453
Rp2454
sg18
F1.9335499877342954
sg16
F1.1663807557197288
sg29
I0
sg28
S'a'
p2455
sg22
F2.934383339714259
sg19
I116
sg24
F2.9676708563929424
sg21
I118
sa(dp2456
g30
I1
sg20
F1.7331088574719615
sg27
F3.317750910297036
sg32
g40
(g69
S'\xff\xff\xff\xff'
p2457
tp2458
Rp2459
sg39
g49
sg25
I180
sg14
I186
sg17
I65
sg37
g38
sg15
F1139.9248410380096
sg31
g40
(g44
S'\xf3\xeeZz\xa6\xac\xb9?'
p2460
tp2461
Rp2462
sg50
g55
sg23
I178
sg26
I44
sg33
g40
(g69
S'\x01\x00\x00\x00'
p2463
tp2464
Rp2465
sg18
F1.6997986096539535
sg16
F1.0826723284553736
sg29
I0
sg28
S'l'
p2466
sg22
F2.9674750755075365
sg19
I102
sg24
F3.0008513169013895
sg21
I104
sa(dp2467
g30
I1
sg20
F1.7667256086715497
sg27
F3.451396295335144
sg32
g40
(g69
S'\xff\xff\xff\xff'
p2468
tp2469
Rp2470
sg39
g49
sg25
I147
sg14
I187
sg17
I62
sg37
g38
sg15
F1143.2606463189004
sg31
g40
(g44
S'\x00\x00\x00\x00\x00\x00\x00\x00'
p2471
tp2472
Rp2473
sg50
g55
sg23
I145
sg26
F9.0
sg33
g40
(g69
S'\xff\xff\xff\xff'
p2474
tp2475
Rp2476
sg18
F1.7333757647429593
sg16
F1.032771667058114
sg29
I0
sg28
g118
sg22
F2.417209433100652
sg19
I104
sg24
F2.45058750762837
sg21
I106
sa(dp2477
g30
I1
sg20
F1.7999951604870148
sg27
F3.551391565822996
sg32
g40
(g69
S'\xff\xff\xff\xff'
p2478
tp2479
Rp2480
sg39
g49
sg25
I207
sg14
I188
sg17
I66
sg37
g38
sg15
F1146.713335354696
sg31
g40
(g44
S'\xcat\xe6J\x94\x06\xbb?'
p2481
tp2482
Rp2483
sg50
g55
sg23
I205
sg26
I67
sg33
g40
(g69
S'\x01\x00\x00\x00'
p2484
tp2485
Rp2486
sg18
F1.7667465066770092
sg16
F1.099587943579536
sg29
I0
sg28
S'l'
p2487
sg22
F3.4179606597754173
sg19
I106
sg24
F3.451316003163811
sg21
I108
sa(dp2488
g30
I1
sg20
F1.7832463624072261
sg27
F4.001655338390265
sg32
g40
(g69
S'\x01\x00\x00\x00'
p2489
tp2490
Rp2491
sg39
g49
sg25
I180
sg14
I189
sg17
I65
sg37
g38
sg15
F1150.2828909137752
sg31
g40
(g44
S'\x00\x00\x00\x00\x00\x00\x00\x00'
p2492
tp2493
Rp2494
sg50
g55
sg23
I178
sg26
F41.0
sg33
g40
(g69
S'\x01\x00\x00\x00'
p2495
tp2496
Rp2497
sg18
F1.7499918424873613
sg16
F1.0827786513837054
sg29
I0
sg28
g118
sg22
F2.967536669515539
sg19
I105
sg24
F3.000890913011972
sg21
I107
sa(dp2498
g30
I0
sg20
F1.6332789375446737
sg27
F3.734965476207435
sg32
g40
(g69
S'\x01\x00\x00\x00'
p2499
tp2500
Rp2501
sg39
g49
sg25
I164
sg14
I190
sg17
I65
sg37
g38
sg15
F1154.285836059542
sg31
g40
(g44
S'\xf3\xeeZz\xa6\xac\xb9?'
p2502
tp2503
Rp2504
sg50
g55
sg23
I162
sg26
I34
sg33
g40
(g69
S'\x01\x00\x00\x00'
p2505
tp2506
Rp2507
sg18
F1.600099210278131
sg16
F1.0829605002654716
sg29
I0
sg28
g118
sg22
F2.7009267328539863
sg19
I96
sg24
F2.7342498127254657
sg21
I98
sa(dp2508
g30
I1
sg20
F1.8333574698772281
sg27
F2.8675575308152474
sg32
g40
(g69
S'\x01\x00\x00\x00'
p2509
tp2510
Rp2511
sg39
g49
sg25
I147
sg14
I191
sg17
I67
sg37
g38
sg15
F1158.0221052751294
sg31
g40
(g44
S'\xcat\xe6J\x94\x06\xbb?'
p2512
tp2513
Rp2514
sg50
g55
sg23
I145
sg26
I5
sg33
g40
(g69
S'\x01\x00\x00\x00'
p2515
tp2516
Rp2517
sg18
F1.8000494218431413
sg16
F1.116276614193339
sg29
I0
sg28
S'l'
p2518
sg22
F2.417238030291628
sg19
I108
sg24
F2.4505633100052364
sg21
I110
sa(dp2519
g30
I1
sg20
F1.6831627338542603
sg27
F3.0843716624658555
sg32
g40
(g69
S'\x01\x00\x00\x00'
p2520
tp2521
Rp2522
sg39
g49
sg25
I164
sg14
I192
sg17
I63
sg37
g38
sg15
F1160.907847330498
sg31
g40
(g44
S'\xcat\xe6J\x94\x06\xbb?'
p2523
tp2524
Rp2525
sg50
g55
sg23
I162
sg26
I31
sg33
g40
(g69
S'\x01\x00\x00\x00'
p2526
tp2527
Rp2528
sg18
F1.649841487116646
sg16
F1.049356947769411
sg29
I0
sg28
S'l'
p2529
sg22
F2.7007687149452977
sg19
I99
sg24
F2.734095461142715
sg21
I101
sa(dp2530
g30
I1
sg20
F1.6164047517231666
sg27
F2.984248804510571
sg32
g40
(g69
S'\x01\x00\x00\x00'
p2531
tp2532
Rp2533
sg39
g49
sg25
I161
sg14
I193
sg17
I63
sg37
g38
sg15
F1164.0103081935667
sg31
g40
(g44
S'\xcat\xe6J\x94\x06\xbb?'
p2534
tp2535
Rp2536
sg50
g55
sg23
I159
sg26
I32
sg33
g40
(g69
S'\x01\x00\x00\x00'
p2537
tp2538
Rp2539
sg18
F1.5831615973147564
sg16
F1.0494368733488955
sg29
I0
sg28
S'l'
p2540
sg22
F2.650671172828879
sg19
I95
sg24
F2.6840188169735484
sg21
I97
sa(dp2541
g30
I1
sg20
F1.9000230610836297
sg27
F3.1009503438835964
sg32
g40
(g69
S'\x01\x00\x00\x00'
p2542
tp2543
Rp2544
sg39
g49
sg25
I171
sg14
I194
sg17
I63
sg37
g38
sg15
F1167.0126392326783
sg31
g40
(g44
S'\xcat\xe6J\x94\x06\xbb?'
p2545
tp2546
Rp2547
sg50
g55
sg23
I169
sg26
I25
sg33
g40
(g69
S'\x01\x00\x00\x00'
p2548
tp2549
Rp2550
sg18
F1.8667194126173854
sg16
F1.0493455821997486
sg29
I0
sg28
S'l'
p2551
sg22
F2.81742259231396
sg19
I112
sg24
F2.8507662034826353
sg21
I114
sa(dp2552
g30
I1
sg20
F1.649733331054449
sg27
F3.0175696845981292
sg32
g40
(g69
S'\xff\xff\xff\xff'
p2553
tp2554
Rp2555
sg39
g49
sg25
I164
sg14
I195
sg17
I60
sg37
g38
sg15
F1170.131725705869
sg31
g40
(g44
S'\xcat\xe6J\x94\x06\xbb?'
p2556
tp2557
Rp2558
sg50
g55
sg23
I162
sg26
I33
sg33
g40
(g69
S'\x01\x00\x00\x00'
p2559
tp2560
Rp2561
sg18
F1.616534905624576
sg16
F0.9993609624216333
sg29
I0
sg28
S'l'
p2562
sg22
F2.700619496172294
sg19
I97
sg24
F2.7339968374581076
sg21
I99
sa(dp2563
g30
I0
sg20
F1.7664429362630472
sg27
F4.135103109409101
sg32
g40
(g69
S'\xff\xff\xff\xff'
p2564
tp2565
Rp2566
sg39
g49
sg25
I188
sg14
I196
sg17
I69
sg37
g38
sg15
F1173.167523544107
sg31
g40
(g44
S'\xcat\xe6J\x94\x06\xbb?'
p2567
tp2568
Rp2569
sg50
g55
sg23
I186
sg26
I50
sg33
g40
(g69
S'\xff\xff\xff\xff'
p2570
tp2571
Rp2572
sg18
F1.7331407543388195
sg16
F1.1493668834445998
sg29
I0
sg28
g118
sg22
F3.100958409719169
sg19
I104
sg24
F3.134319985867478
sg21
I106
sa(dp2573
g30
I1
sg20
F1.7998719725292176
sg27
F3.4012400922947563
sg32
g40
(g69
S'\x01\x00\x00\x00'
p2574
tp2575
Rp2576
sg39
g49
sg25
I190
sg14
I197
sg17
I68
sg37
g38
sg15
F1177.3039237936027
sg31
g40
(g44
S'\xa1\xfaq\x1b\x82`\xbc?'
p2577
tp2578
Rp2579
sg50
g55
sg23
I188
sg26
I50
sg33
g40
(g69
S'\x01\x00\x00\x00'
p2580
tp2581
Rp2582
sg18
F1.7666687809396535
sg16
F1.1328006675466895
sg29
I0
sg28
S'l'
p2583
sg22
F3.1343995447969064
sg19
I106
sg24
F3.1677545215934515
sg21
I108
sa(dp2584
g30
I1
sg20
F1.9833956544753164
sg27
F4.03512397070881
sg32
g40
(g69
S'\x01\x00\x00\x00'
p2585
tp2586
Rp2587
sg39
g49
sg25
I221
sg14
I198
sg17
I67
sg37
g38
sg15
F1180.7233311787713
sg31
g40
(g44
S'\xa1\xfaq\x1b\x82`\xbc?'
p2588
tp2589
Rp2590
sg50
g55
sg23
I219
sg26
I70
sg33
g40
(g69
S'\x01\x00\x00\x00'
p2591
tp2592
Rp2593
sg18
F1.9501557998009957
sg16
F1.116161125479266
sg29
I0
sg28
S'l'
p2594
sg22
F3.651413600309752
sg19
I117
sg24
F3.68482687138021
sg21
I119
sa(dp2595
g30
I1
sg20
F1.6664747965405695
sg27
F3.7848764032823965
sg32
g40
(g69
S'\xff\xff\xff\xff'
p2596
tp2597
Rp2598
sg39
g49
sg25
I200
sg14
I199
sg17
I68
sg37
g38
sg15
F1184.776482389425
sg31
g40
(g44
S'\x1ci\xcf\xa9\xb8R\xb8?'
p2599
tp2600
Rp2601
sg50
g55
sg23
I198
sg26
I68
sg33
g40
(g69
S'\x01\x00\x00\x00'
p2602
tp2603
Rp2604
sg18
F1.6331847134279087
sg16
F1.1327922350610606
sg29
I0
sg28
S'l'
p2605
sg22
F3.3012110918061808
sg19
I98
sg24
F3.3344967752927914
sg21
I100
sa(dp2606
g30
I1
sg20
F1.8331888196407817
sg27
F3.8348467244650237
sg32
g40
(g69
S'\xff\xff\xff\xff'
p2607
tp2608
Rp2609
sg39
g49
sg25
I209
sg14
I200
sg17
I64
sg37
g38
sg15
F1188.579538184451
sg31
g40
(g44
S'\xcat\xe6J\x94\x06\xbb?'
p2610
tp2611
Rp2612
sg50
g55
sg23
I207
sg26
I67
sg33
g40
(g69
S'\xff\xff\xff\xff'
p2613
tp2614
Rp2615
sg18
F1.7998859044746496
sg16
F1.0659766917815432
sg29
I0
sg28
S'a'
p2616
sg22
F3.45121444639517
sg19
I108
sg24
F3.4845323934569024
sg21
I110
sa(dp2617
g30
I1
sg20
F1.8499335848609917
sg27
F3.2010662358952686
sg32
g40
(g69
S'\xff\xff\xff\xff'
p2618
tp2619
Rp2620
sg39
g49
sg25
I173
sg14
I201
sg17
I72
sg37
g38
sg15
F1192.4324763092445
sg31
g40
(g44
S'\xcat\xe6J\x94\x06\xbb?'
p2621
tp2622
Rp2623
sg50
g55
sg23
I171
sg26
I30
sg33
g40
(g69
S'\x01\x00\x00\x00'
p2624
tp2625
Rp2626
sg18
F1.8166339693125337
sg16
F1.1994941227603704
sg29
I0
sg28
S'l'
p2627
sg22
F2.850851628521923
sg19
I109
sg24
F2.8841398785007186
sg21
I111
sa(dp2628
g30
I0
sg20
F1.8833428230136633
sg27
F3.43469589255983
sg32
g40
(g69
S'\xff\xff\xff\xff'
p2629
tp2630
Rp2631
sg39
g49
sg25
I146
sg14
I202
sg17
I71
sg37
g38
sg15
F1195.651616347197
sg31
g40
(g44
S'\xf3\xeeZz\xa6\xac\xb9?'
p2632
tp2633
Rp2634
sg50
g55
sg23
I144
sg26
I1
sg33
g40
(g69
S'\xff\xff\xff\xff'
p2635
tp2636
Rp2637
sg18
F1.8500516400090419
sg16
F1.1829165412927978
sg29
I0
sg28
g118
sg22
F2.4005324947065674
sg19
I111
sg24
F2.433825510845054
sg21
I113
sa(dp2638
g30
I0
sg20
F1.7333178370608948
sg27
F2.850848328846041
sg32
g40
(g69
S'\x01\x00\x00\x00'
p2639
tp2640
Rp2641
sg39
g49
sg25
I146
sg14
I203
sg17
I72
sg37
g38
sg15
F1199.087609746377
sg31
g40
(g44
S'\xcat\xe6J\x94\x06\xbb?'
p2642
tp2643
Rp2644
sg50
g55
sg23
I144
sg26
I10
sg33
g40
(g69
S'\xff\xff\xff\xff'
p2645
tp2646
Rp2647
sg18
F1.700031420274172
sg16
F1.1996462745591998
sg29
I1
sg28
S'a'
p2648
sg22
F2.4005662247072905
sg19
I102
sg24
F2.4338530081440695
sg21
I104
sa(dp2649
g30
I1
sg20
F1.8667021809378639
sg27
F3.701484011777211
sg32
g40
(g69
S'\x01\x00\x00\x00'
p2650
tp2651
Rp2652
sg39
g49
sg25
I205
sg14
I204
sg17
I68
sg37
g38
sg15
F1201.9565784393926
sg31
g40
(g44
S'\xcat\xe6J\x94\x06\xbb?'
p2653
tp2654
Rp2655
sg50
g55
sg23
I203
sg26
I61
sg33
g40
(g69
S'\x01\x00\x00\x00'
p2656
tp2657
Rp2658
sg18
F1.8333362052217126
sg16
F1.1328417301992886
sg29
I0
sg28
S'l'
p2659
sg22
F3.3846225480083376
sg19
I110
sg24
F3.418007955129724
sg21
I112
sa(dp2660
g30
I1
sg20
F1.766566124279052
sg27
F3.81820278277155
sg32
g40
(g69
S'\x01\x00\x00\x00'
p2661
tp2662
Rp2663
sg39
g49
sg25
I212
sg14
I205
sg17
I70
sg37
g38
sg15
F1205.676169250044
sg31
g40
(g44
S'x\x80\xfd\xebo\xba\xbd?'
p2664
tp2665
Rp2666
sg50
g55
sg23
I210
sg26
I74
sg33
g40
(g69
S'\xff\xff\xff\xff'
p2667
tp2668
Rp2669
sg18
F1.7333259029546753
sg16
F1.1662165050511248
sg29
I0
sg28
S'a'
p2670
sg22
F3.501288524188567
sg19
I104
sg24
F3.534646434010938
sg21
I106
sa(dp2671
g30
I1
sg20
F1.6163706550141796
sg27
F3.284297676407732
sg32
g40
(g69
S'\xff\xff\xff\xff'
p2672
tp2673
Rp2674
sg39
g49
sg25
I177
sg14
I206
sg17
I63
sg37
g38
sg15
F1209.5125323597458
sg31
g40
(g44
S'\x1ci\xcf\xa9\xb8R\xb8?'
p2675
tp2676
Rp2677
sg50
g55
sg23
I175
sg26
I48
sg33
g40
(g69
S'\x01\x00\x00\x00'
p2678
tp2679
Rp2680
sg18
F1.5829808483249508
sg16
F1.0492839882499538
sg29
I0
sg28
S'l'
p2681
sg22
F2.917357368685771
sg19
I95
sg24
F2.9507178448839113
sg21
I97
sa(dp2682
g30
I1
sg20
F1.6163746879901737
sg27
F3.084313001600094
sg32
g40
(g69
S'\x01\x00\x00\x00'
p2683
tp2684
Rp2685
sg39
g49
sg25
I164
sg14
I207
sg17
I70
sg37
g38
sg15
F1212.8151337158051
sg31
g40
(g44
S'\xa1\xfaq\x1b\x82`\xbc?'
p2686
tp2687
Rp2688
sg50
g55
sg23
I162
sg26
I35
sg33
g40
(g69
S'\x01\x00\x00\x00'
p2689
tp2690
Rp2691
sg18
F1.5831549979629926
sg16
F1.1660328230354935
sg29
I0
sg28
S'l'
p2692
sg22
F2.7006473601213656
sg19
I95
sg24
F2.733992071240209
sg21
I97
sa(dp2693
g30
I1
sg20
F1.8665976911433972
sg27
F3.1843698659795336
sg32
g40
(g69
S'\xff\xff\xff\xff'
p2694
tp2695
Rp2696
sg39
g49
sg25
I148
sg14
I208
sg17
I62
sg37
g38
sg15
F1215.9175054875668
sg31
g40
(g44
S'x\x80\xfd\xebo\xba\xbd?'
p2697
tp2698
Rp2699
sg50
g55
sg23
I146
sg26
I4
sg33
g40
(g69
S'\xff\xff\xff\xff'
p2700
tp2701
Rp2702
sg18
F1.8333780011744238
sg16
F1.0326954078045674
sg29
I0
sg28
S'a'
p2703
sg22
F2.4338511749519967
sg19
I110
sg24
F2.467274345108308
sg21
I112
sa(dp2704
g30
I0
sg20
F1.966729715000838
sg27
F3.6847234815359116
sg32
g40
(g69
S'\xff\xff\xff\xff'
p2705
tp2706
Rp2707
sg39
g49
sg25
I161
sg14
I209
sg17
I69
sg37
g38
sg15
F1219.1200096497196
sg31
g40
(g44
S'\xf3\xeeZz\xa6\xac\xb9?'
p2708
tp2709
Rp2710
sg50
g55
sg23
I159
sg26
I11
sg33
g40
(g69
S'\xff\xff\xff\xff'
p2711
tp2712
Rp2713
sg18
F1.9333545734989457
sg16
F1.1494809056748636
sg29
I0
sg28
g118
sg22
F2.6505820815218613
sg19
I116
sg24
F2.68394365767017
sg21
I118
sa(dp2714
g30
I1
sg20
F1.9501033715787344
sg27
F3.5848374670022167
sg32
g40
(g69
S'\xff\xff\xff\xff'
p2715
tp2716
Rp2717
sg39
g49
sg25
I196
sg14
I210
sg17
I72
sg37
g38
sg15
F1222.8060687675024
sg31
g40
(g44
S'\xcat\xe6J\x94\x06\xbb?'
p2718
tp2719
Rp2720
sg50
g55
sg23
I194
sg26
I47
sg33
g40
(g69
S'\x01\x00\x00\x00'
p2721
tp2722
Rp2723
sg18
F1.9167945902445354
sg16
F1.1995711151976138
sg29
I0
sg28
S'l'
p2724
sg22
F3.234512137132697
sg19
I115
sg24
F3.267873713222798
sg21
I117
sa(dp2725
g30
I1
sg20
F1.8499086539377458
sg27
F3.2010127077810466
sg32
g40
(g69
S'\xff\xff\xff\xff'
p2726
tp2727
Rp2728
sg39
g49
sg25
I172
sg14
I211
sg17
I61
sg37
g38
sg15
F1226.4090324648423
sg31
g40
(g44
S'\xcat\xe6J\x94\x06\xbb?'
p2729
tp2730
Rp2731
sg50
g55
sg23
I170
sg26
I29
sg33
g40
(g69
S'\xff\xff\xff\xff'
p2732
tp2733
Rp2734
sg18
F1.8166255368269049
sg16
F1.0159946383791976
sg29
I0
sg28
S'a'
p2735
sg22
F2.834135827200953
sg19
I109
sg24
F2.8674358093412593
sg21
I111
sa(dp2736
g30
I1
sg20
F1.7665774898487143
sg27
F2.9509268245310523
sg32
g40
(g69
S'\xff\xff\xff\xff'
p2737
tp2738
Rp2739
sg39
g49
sg25
I155
sg14
I212
sg17
I67
sg37
g38
sg15
F1229.6281409725198
sg31
g40
(g44
S'\xa1\xfaq\x1b\x82`\xbc?'
p2740
tp2741
Rp2742
sg50
g55
sg23
I153
sg26
I17
sg33
g40
(g69
S'\x01\x00\x00\x00'
p2743
tp2744
Rp2745
sg18
F1.73329143965384
sg16
F1.1161442604498006
sg29
I0
sg28
S'l'
p2746
sg22
F2.5505941436858848
sg19
I104
sg24
F2.5839516868581995
sg21
I106
sa(dp2747
g30
I1
sg20
F1.9499574524816126
sg27
F3.768095341627486
sg32
g40
(g69
S'\xff\xff\xff\xff'
p2748
tp2749
Rp2750
sg39
g49
sg25
I207
sg14
I213
sg17
I66
sg37
g38
sg15
F1232.597264053824
sg31
g40
(g44
S'\xa1\xfaq\x1b\x82`\xbc?'
p2751
tp2752
Rp2753
sg50
g55
sg23
I205
sg26
I58
sg33
g40
(g69
S'\x01\x00\x00\x00'
p2754
tp2755
Rp2756
sg18
F1.9166475713136606
sg16
F1.0993895962601528
sg29
I0
sg28
S'l'
p2757
sg22
F3.417892466415651
sg19
I115
sg24
F3.4512569755897857
sg21
I117
sa(dp2758
g30
I1
sg20
F1.7164135874481872
sg27
F3.4177575462381355
sg32
g40
(g69
S'\xff\xff\xff\xff'
p2759
tp2760
Rp2761
sg39
g49
sg25
I184
sg14
I214
sg17
I62
sg37
g38
sg15
F1236.3835981813609
sg31
g40
(g44
S'\xcat\xe6J\x94\x06\xbb?'
p2762
tp2763
Rp2764
sg50
g55
sg23
I182
sg26
I49
sg33
g40
(g69
S'\x01\x00\x00\x00'
p2765
tp2766
Rp2767
sg18
F1.683196463913191
sg16
F1.0326323473127559
sg29
I0
sg28
S'l'
p2768
sg22
F3.0341820960165933
sg19
I101
sg24
F3.0675407390808687
sg21
I103
sa(dp2769
g30
I1
sg20
F1.749819892575033
sg27
F3.2344362445292063
sg32
g40
(g69
S'\x01\x00\x00\x00'
p2770
tp2771
Rp2772
sg39
g49
sg25
I172
sg14
I215
sg17
I64
sg37
g38
sg15
F1239.8195090885856
sg31
g40
(g44
S'\xf3\xeeZz\xa6\xac\xb9?'
p2773
tp2774
Rp2775
sg50
g55
sg23
I170
sg26
I35
sg33
g40
(g69
S'\xff\xff\xff\xff'
p2776
tp2777
Rp2778
sg18
F1.7165690389811061
sg16
F1.0660786152002402
sg29
I0
sg28
S'a'
p2779
sg22
F2.8341160291456617
sg19
I103
sg24
F2.8674666063161567
sg21
I105
sa(dp2780
g30
I0
sg20
F1.8332020184025168
sg27
F3.4345756376278587
sg32
g40
(g69
S'\x01\x00\x00\x00'
p2781
tp2782
Rp2783
sg39
g49
sg25
I146
sg14
I216
sg17
I60
sg37
g38
sg15
F1243.072084762156
sg31
g40
(g44
S'x\x80\xfd\xebo\xba\xbd?'
p2784
tp2785
Rp2786
sg50
g55
sg23
I144
sg26
I4
sg33
g40
(g69
S'\x01\x00\x00\x00'
p2787
tp2788
Rp2789
sg18
F1.7999654633458704
sg16
F0.9992623386788182
sg29
I0
sg28
g118
sg22
F2.400382176041603
sg19
I108
sg24
F2.4337316533201374
sg21
I110
sa(dp2790
g30
I1
sg20
F1.7666214855271392
sg27
F3.0176235793624073
sg32
g40
(g69
S'\x01\x00\x00\x00'
p2791
tp2792
Rp2793
sg39
g49
sg25
I160
sg14
I217
sg17
I64
sg37
g38
sg15
F1246.508018767112
sg31
g40
(g44
S'x\x80\xfd\xebo\xba\xbd?'
p2794
tp2795
Rp2796
sg50
g55
sg23
I158
sg26
I22
sg33
g40
(g69
S'\xff\xff\xff\xff'
p2797
tp2798
Rp2799
sg18
F1.733327369496692
sg16
F1.0660925472038798
sg29
I0
sg28
S'a'
p2800
sg22
F2.633953538374044
sg19
I104
sg24
F2.6673466447391547
sg21
I106
sa(dp2801
g30
I0
sg20
F1.799917068099603
sg27
F3.484632117091678
sg32
g40
(g69
S'\xff\xff\xff\xff'
p2802
tp2803
Rp2804
sg39
g49
sg25
I149
sg14
I218
sg17
I70
sg37
g38
sg15
F1249.5437748094555
sg31
g40
(g44
S'\xcat\xe6J\x94\x06\xbb?'
p2805
tp2806
Rp2807
sg50
g55
sg23
I147
sg26
I9
sg33
g40
(g69
S'\x01\x00\x00\x00'
p2808
tp2809
Rp2810
sg18
F1.7667329413234256
sg16
F1.1661732426728122
sg29
I0
sg28
g118
sg22
F2.4505486448179
sg19
I106
sg24
F2.4838720913394354
sg21
I108
sa(dp2811
g30
I1
sg20
F1.666503760323394
sg27
F3.4013236840837635
sg32
g40
(g69
S'\xff\xff\xff\xff'
p2812
tp2813
Rp2814
sg39
g49
sg25
I188
sg14
I219
sg17
I68
sg37
g38
sg15
F1253.0297729931772
sg31
g40
(g44
S'\xcat\xe6J\x94\x06\xbb?'
p2815
tp2816
Rp2817
sg50
g55
sg23
I186
sg26
I56
sg33
g40
(g69
S'\x01\x00\x00\x00'
p2818
tp2819
Rp2820
sg18
F1.6332228429964744
sg16
F1.1328131330083124
sg29
I0
sg28
S'l'
p2821
sg22
F3.1011021290323697
sg19
I98
sg24
F3.1343841463094577
sg21
I100
sa(dp2822
g30
I1
sg20
F1.6664113693404943
sg27
F3.134260958293453
sg32
g40
(g69
S'\xff\xff\xff\xff'
p2823
tp2824
Rp2825
sg39
g49
sg25
I152
sg14
I220
sg17
I67
sg37
g38
sg15
F1256.449262870301
sg31
g40
(g44
S'\x1ci\xcf\xa9\xb8R\xb8?'
p2826
tp2827
Rp2828
sg50
g55
sg23
I150
sg26
I20
sg33
g40
(g69
S'\xff\xff\xff\xff'
p2829
tp2830
Rp2831
sg18
F1.6332353084580973
sg16
F1.116099898063112
sg29
I0
sg28
S'a'
p2832
sg22
F2.500560028653126
sg19
I98
sg24
F2.5338574443594553
sg21
I100
sa(dp2833
g30
I1
sg20
F1.8501447641756386
sg27
F4.569023944262881
sg32
g40
(g69
S'\x01\x00\x00\x00'
p2834
tp2835
Rp2836
sg39
g49
sg25
I214
sg14
I221
sg17
I70
sg37
g38
sg15
F1311.8255156021914
sg31
g40
(g44
S'\x00\x00\x00\x00\x00\x00\x00\x00'
p2837
tp2838
Rp2839
sg50
g55
sg23
I212
sg26
F71.0
sg33
g40
(g69
S'\x01\x00\x00\x00'
p2840
tp2841
Rp2842
sg18
F1.8169151751790196
sg16
F1.166450415563304
sg29
I0
sg28
g118
sg22
F3.534867512411438
sg19
I109
sg24
F3.5682089238543995
sg21
I111
sa(dp2843
g30
I1
sg20
F1.8834187155589461
sg27
F3.351375360682141
sg32
g40
(g69
S'\xff\xff\xff\xff'
p2844
tp2845
Rp2846
sg39
g49
sg25
I182
sg14
I222
sg17
I66
sg37
g38
sg15
F1316.3959287108155
sg31
g40
(g44
S'\xf3\xeeZz\xa6\xac\xb9?'
p2847
tp2848
Rp2849
sg50
g55
sg23
I180
sg26
I37
sg33
g40
(g69
S'\x01\x00\x00\x00'
p2850
tp2851
Rp2852
sg18
F1.850086836493574
sg16
F1.0995069181080908
sg29
I0
sg28
S'l'
p2853
sg22
F3.0010133677278645
sg19
I111
sg24
F3.0343841096037067
sg21
I113
sa(dp2854
g30
I1
sg20
F1.683136336505413
sg27
F3.8348837541998364
sg32
g40
(g69
S'\x01\x00\x00\x00'
p2855
tp2856
Rp2857
sg39
g49
sg25
I209
sg14
I223
sg17
I67
sg37
g38
sg15
F1319.7652942817658
sg31
g40
(g44
S'\xcat\xe6J\x94\x06\xbb?'
p2858
tp2859
Rp2860
sg50
g55
sg23
I207
sg26
I76
sg33
g40
(g69
S'\x01\x00\x00\x00'
p2861
tp2862
Rp2863
sg18
F1.64986311836401
sg16
F1.1161625920212828
sg29
I0
sg28
S'l'
p2864
sg22
F3.451331035059411
sg19
I99
sg24
F3.4846218514139764
sg21
I101
sa(dp2865
g30
I1
sg20
F1.8832907613250427
sg27
F2.8508347634924576
sg32
g40
(g69
S'\x01\x00\x00\x00'
p2866
tp2867
Rp2868
sg39
g49
sg25
I146
sg14
I224
sg17
I68
sg37
g38
sg15
F1323.6183269973844
sg31
g40
(g44
S'\xcat\xe6J\x94\x06\xbb?'
p2869
tp2870
Rp2871
sg50
g55
sg23
I144
sg26
I1
sg33
g40
(g69
S'\x01\x00\x00\x00'
p2872
tp2873
Rp2874
sg18
F1.8500945357372984
sg16
F1.1328695941483602
sg29
I0
sg28
S'l'
p2875
sg22
F2.400449269451201
sg19
I111
sg24
F2.4338442090083845
sg21
I113
sa(dp2876
g30
I1
sg20
F1.5998084720340557
sg27
F3.0844453553436324
sg32
g40
(g69
S'\x01\x00\x00\x00'
p2877
tp2878
Rp2879
sg39
g49
sg25
I164
sg14
I225
sg17
I66
sg37
g38
sg15
F1326.4872124651447
sg31
g40
(g44
S'\xcat\xe6J\x94\x06\xbb?'
p2880
tp2881
Rp2882
sg50
g55
sg23
I162
sg26
I36
sg33
g40
(g69
S'\x01\x00\x00\x00'
p2883
tp2884
Rp2885
sg18
F1.5665620180079713
sg16
F1.0995102178421803
sg29
I0
sg28
S'l'
p2886
sg22
F2.7008358084131032
sg19
I94
sg24
F2.734159621526487
sg21
I96
sa(dp2887
g30
I0
sg20
F1.5331036513089202
sg27
F3.9517110479646362
sg32
g40
(g69
S'\x01\x00\x00\x00'
p2888
tp2889
Rp2890
sg39
g49
sg25
I180
sg14
I226
sg17
I60
sg37
g38
sg15
F1329.5897063250304
sg31
g40
(g44
S'\x00\x00\x00\x00\x00\x00\x00\x00'
p2891
tp2892
Rp2893
sg50
g55
sg23
I178
sg26
F56.0
sg33
g40
(g69
S'\x01\x00\x00\x00'
p2894
tp2895
Rp2896
sg18
F1.4997941367910244
sg16
F0.9993987253983505
sg29
I0
sg28
S'a'
p2897
sg22
F2.967517238052096
sg19
I90
sg24
F3.0009459076682106
sg21
I92
sa(dp2898
g30
I1
sg20
F1.8165375454118475
sg27
F3.3678304874920286
sg32
g40
(g69
S'\xff\xff\xff\xff'
p2899
tp2900
Rp2901
sg39
g49
sg25
I178
sg14
I227
sg17
I62
sg37
g38
sg15
F1333.5594798094826
sg31
g40
(g44
S'\xcat\xe6J\x94\x06\xbb?'
p2902
tp2903
Rp2904
sg50
g55
sg23
I176
sg26
I37
sg33
g40
(g69
S'\xff\xff\xff\xff'
p2905
tp2906
Rp2907
sg18
F1.7832415961893275
sg16
F1.032775700034108
sg29
I0
sg28
S'a'
p2908
sg22
F2.934152362286113
sg19
I107
sg24
F2.9675762656261213
sg21
I109
sa(dp2909
g30
I1
sg20
F1.6496900685597211
sg27
F3.2843625700334087
sg32
g40
(g69
S'\x01\x00\x00\x00'
p2910
tp2911
Rp2912
sg39
g49
sg25
I177
sg14
I228
sg17
I66
sg37
g38
sg15
F1336.9454885888263
sg31
g40
(g44
S'\xa1\xfaq\x1b\x82`\xbc?'
p2913
tp2914
Rp2915
sg50
g55
sg23
I175
sg26
I46
sg33
g40
(g69
S'\xff\xff\xff\xff'
p2916
tp2917
Rp2918
sg18
F1.6164498472353444
sg16
F1.099343400739599
sg29
I0
sg28
S'a'
p2919
sg22
F2.91741602960974
sg19
I97
sg24
F2.950822701328434
sg21
I99
sa(dp2920
g30
I1
sg20
F1.53302079270361
sg27
F2.6006612554192543
sg32
g40
(g69
S'\xff\xff\xff\xff'
p2921
tp2922
Rp2923
sg39
g49
sg25
I132
sg14
I229
sg17
I64
sg37
g38
sg15
F1340.2480202849838
sg31
g40
(g44
S'\xf3\xeeZz\xa6\xac\xb9?'
p2924
tp2925
Rp2926
sg50
g55
sg23
I130
sg26
I8
sg33
g40
(g69
S'\xff\xff\xff\xff'
p2927
tp2928
Rp2929
sg18
F1.4998025692766532
sg16
F1.0661259105545469
sg29
I0
sg28
S'a'
p2930
sg22
F2.1669387678266503
sg19
I90
sg24
F2.2002783461357467
sg21
I92
sa(dp2931
g30
I1
sg20
F1.5330578224384226
sg27
F2.483906554582063
sg32
g40
(g69
S'\xff\xff\xff\xff'
p2932
tp2933
Rp2934
sg39
g49
sg25
I129
sg14
I230
sg17
I64
sg37
g38
sg15
F1342.8667194126174
sg31
g40
(g44
S'\xcat\xe6J\x94\x06\xbb?'
p2935
tp2936
Rp2937
sg50
g55
sg23
I127
sg26
I5
sg33
g40
(g69
S'\xff\xff\xff\xff'
p2938
tp2939
Rp2940
sg18
F1.4997321761329658
sg16
F1.0660448851413094
sg29
I0
sg28
S'a'
p2941
sg22
F2.11694534891285
sg19
I90
sg24
F2.150310224678833
sg21
I92
sa(dp2942
g30
I1
sg20
F1.5161231425008737
sg27
F3.0506808518548496
sg32
g40
(g69
S'\xff\xff\xff\xff'
p2943
tp2944
Rp2945
sg39
g49
sg25
I163
sg14
I231
sg17
I64
sg37
g38
sg15
F1345.3687510976451
sg31
g40
(g44
S'\xa1\xfaq\x1b\x82`\xbc?'
p2946
tp2947
Rp2948
sg50
g55
sg23
I161
sg26
I40
sg33
g40
(g69
S'\xff\xff\xff\xff'
p2949
tp2950
Rp2951
sg18
F1.48294561507646
sg16
F1.0658850340987556
sg29
I0
sg28
S'a'
p2952
sg22
F2.683739810832776
sg19
I89
sg24
F2.7171596813132055
sg21
I91
sa(dp2953
g30
I0
sg20
F1.749780663056299
sg27
F3.267715328722261
sg32
g40
(g69
S'\x01\x00\x00\x00'
p2954
tp2955
Rp2956
sg39
g49
sg25
I149
sg14
I232
sg17
I69
sg37
g38
sg15
F1348.43783608597
sg31
g40
(g44
S'\x1ci\xcf\xa9\xb8R\xb8?'
p2957
tp2958
Rp2959
sg50
g55
sg23
I147
sg26
I12
sg33
g40
(g69
S'\xff\xff\xff\xff'
p2960
tp2961
Rp2962
sg18
F1.71648324734997
sg16
F1.149372749554459
sg29
I0
sg28
S'l'
p2963
sg22
F2.4505130815668963
sg19
I103
sg24
F2.483827728952747
sg21
I105
sa(dp2964
g30
I1
sg20
F1.7331436873646453
sg27
F4.118451468530111
sg32
g40
(g69
S'\x01\x00\x00\x00'
p2965
tp2966
Rp2967
sg39
g49
sg25
I187
sg14
I233
sg17
I68
sg37
g38
sg15
F1351.7237165078404
sg31
g40
(g44
S'\x00\x00\x00\x00\x00\x00\x00\x00'
p2968
tp2969
Rp2970
sg50
g55
sg23
I185
sg26
F51.0
sg33
g40
(g69
S'\x01\x00\x00\x00'
p2971
tp2972
Rp2973
sg18
F1.6999393958831206
sg16
F1.1327867356012575
sg29
I0
sg28
g118
sg22
F3.0843188676517457
sg19
I102
sg24
F3.1177413045079447
sg21
I104
sa(dp2974
g30
I1
sg20
F1.8832555647823028
sg27
F3.7847851121332496
sg32
g40
(g69
S'\xff\xff\xff\xff'
p2975
tp2976
Rp2977
sg39
g49
sg25
I207
sg14
I234
sg17
I67
sg37
g38
sg15
F1355.8435923372745
sg31
g40
(g44
S'\xcat\xe6J\x94\x06\xbb?'
p2978
tp2979
Rp2980
sg50
g55
sg23
I205
sg26
I62
sg33
g40
(g69
S'\xff\xff\xff\xff'
p2981
tp2982
Rp2983
sg18
F1.8499394509126432
sg16
F1.1160353710874915
sg29
I0
sg28
S'a'
p2984
sg22
F3.4178704685764387
sg19
I111
sg24
F3.451200881099794
sg21
I113
sa(dp2985
g30
I1
sg20
F1.8667351777548902
sg27
F3.0844347230158746
sg32
g40
(g69
S'\xff\xff\xff\xff'
p2986
tp2987
Rp2988
sg39
g49
sg25
I161
sg14
I235
sg17
I67
sg37
g38
sg15
F1359.6464633503347
sg31
g40
(g44
S'\xa1\xfaq\x1b\x82`\xbc?'
p2989
tp2990
Rp2991
sg50
g55
sg23
I159
sg26
I17
sg33
g40
(g69
S'\xff\xff\xff\xff'
p2992
tp2993
Rp2994
sg18
F1.8334597598877735
sg16
F1.1162117205676623
sg29
I0
sg28
S'a'
p2995
sg22
F2.6507657635957003
sg19
I110
sg24
F2.6840529136243276
sg21
I112
sa(dp2996
g30
I1
sg20
F1.716505978431087
sg27
F3.484675746120047
sg32
g40
(g69
S'\x01\x00\x00\x00'
p2997
tp2998
Rp2999
sg39
g49
sg25
I189
sg14
I236
sg17
I64
sg37
g38
sg15
F1362.7489440114587
sg31
g40
(g44
S'\xa1\xfaq\x1b\x82`\xbc?'
p3000
tp3001
Rp3002
sg50
g55
sg23
I187
sg26
I54
sg33
g40
(g69
S'\x01\x00\x00\x00'
p3003
tp3004
Rp3005
sg18
F1.6831986636971124
sg16
F1.0660470849252306
sg29
I0
sg28
S'l'
p3006
sg22
F3.1177336052642204
sg19
I101
sg24
F3.1511025140061975
sg21
I103
sa(dp3007
g30
I1
sg20
F1.783290724735707
sg27
F3.1510882154107094
sg32
g40
(g69
S'\x01\x00\x00\x00'
p3008
tp3009
Rp3010
sg39
g49
sg25
I165
sg14
I237
sg17
I69
sg37
g38
sg15
F1366.2516231665504
sg31
g40
(g44
S'\xcat\xe6J\x94\x06\xbb?'
p3011
tp3012
Rp3013
sg50
g55
sg23
I163
sg26
I26
sg33
g40
(g69
S'\x01\x00\x00\x00'
p3014
tp3015
Rp3016
sg18
F1.7500585693051107
sg16
F1.1495179354096763
sg29
I0
sg28
S'l'
p3017
sg22
F2.7174108234466985
sg19
I105
sg24
F2.7508028299198486
sg21
I107
sa(dp3018
g30
I1
sg20
F1.950050943356473
sg27
F2.9508897947962396
sg32
g40
(g69
S'\x01\x00\x00\x00'
p3019
tp3020
Rp3021
sg39
g49
sg25
I159
sg14
I238
sg17
I70
sg37
g38
sg15
F1369.4207840841264
sg31
g40
(g44
S'\xcat\xe6J\x94\x06\xbb?'
p3022
tp3023
Rp3024
sg50
g55
sg23
I157
sg26
I10
sg33
g40
(g69
S'\x01\x00\x00\x00'
p3025
tp3026
Rp3027
sg18
F1.9168169547920115
sg16
F1.1662465687841177
sg29
I0
sg28
S'l'
p3028
sg22
F2.617296397977043
sg19
I115
sg24
F2.6506535744993016
sg21
I117
sa(dp3029
g30
I1
sg20
F1.6831982970470563
sg27
F3.234391148958821
sg32
g40
(g69
S'\x01\x00\x00\x00'
p3030
tp3031
Rp3032
sg39
g49
sg25
I173
sg14
I239
sg17
I62
sg37
g38
sg15
F1372.3898470379645
sg31
g40
(g44
S'\xcat\xe6J\x94\x06\xbb?'
p3033
tp3034
Rp3035
sg50
g55
sg23
I171
sg26
I40
sg33
g40
(g69
S'\xff\xff\xff\xff'
p3036
tp3037
Rp3038
sg18
F1.6498176561435685
sg16
F1.0326657107216306
sg29
I0
sg28
S'a'
p3039
sg22
F2.850757404405158
sg19
I99
sg24
F2.8842036722344346
sg21
I101
sa(dp3040
g30
I1
sg20
F1.4663738996605389
sg27
F2.5839443542063236
sg32
g40
(g69
S'\xff\xff\xff\xff'
p3041
tp3042
Rp3043
sg39
g49
sg25
I136
sg14
I240
sg17
I61
sg37
g38
sg15
F1375.6422833917313
sg31
g40
(g44
S'\xcat\xe6J\x94\x06\xbb?'
p3044
tp3045
Rp3046
sg50
g55
sg23
I134
sg26
I16
sg33
g40
(g69
S'\x01\x00\x00\x00'
p3047
tp3048
Rp3049
sg18
F1.4331259790924378
sg16
F1.0161346913664602
sg29
I0
sg28
S'l'
p3050
sg22
F2.2337392792105675
sg19
I86
sg24
F2.2670315621071495
sg21
I88
sa(dp3051
g30
I1
sg20
F1.8165720086544752
sg27
F3.634801555541344
sg32
g40
(g69
S'\x01\x00\x00\x00'
p3052
tp3053
Rp3054
sg39
g49
sg25
I200
sg14
I241
sg17
I71
sg37
g38
sg15
F1378.2444027381716
sg31
g40
(g44
S'\xcat\xe6J\x94\x06\xbb?'
p3055
tp3056
Rp3057
sg50
g55
sg23
I198
sg26
I59
sg33
g40
(g69
S'\x01\x00\x00\x00'
p3058
tp3059
Rp3060
sg18
F1.783286325109657
sg16
F1.1828677793382667
sg29
I0
sg28
S'l'
p3061
sg22
F3.3011245668749325
sg19
I107
sg24
F3.3345180398900993
sg21
I109
sa(dp3062
g30
I1
sg20
F1.916660403367132
sg27
F3.317809204570949
sg32
g40
(g69
S'\xff\xff\xff\xff'
p3063
tp3064
Rp3065
sg39
g49
sg25
I173
sg14
I242
sg17
I64
sg37
g38
sg15
F1381.8972432658193
sg31
g40
(g44
S'\xa1\xfaq\x1b\x82`\xbc?'
p3066
tp3067
Rp3068
sg50
g55
sg23
I171
sg26
I26
sg33
g40
(g69
S'\xff\xff\xff\xff'
p3069
tp3070
Rp3071
sg18
F1.8834253149107099
sg16
F1.0661380093661137
sg29
I0
sg28
S'a'
p3072
sg22
F2.850915422255639
sg19
I113
sg24
F2.8841417116345838
sg21
I115
sa(dp3073
g30
I1
sg20
F1.7497813963564113
sg27
F3.518013124645222
sg32
g40
(g69
S'\xff\xff\xff\xff'
p3074
tp3075
Rp3076
sg39
g49
sg25
I151
sg14
I243
sg17
I61
sg37
g38
sg15
F1385.233261559275
sg31
g40
(g44
S'\x00\x00\x00\x00\x00\x00\x00\x00'
p3077
tp3078
Rp3079
sg50
g55
sg23
I149
sg26
F14.0
sg33
g40
(g69
S'\xff\xff\xff\xff'
p3080
tp3081
Rp3082
sg18
F1.7165444747079164
sg16
F1.0160499996272847
sg29
I0
sg28
g118
sg22
F2.483737171103712
sg19
I103
sg24
F2.5171706068795174
sg21
I105
sa(dp3083
g30
I1
sg20
F1.5497197289951146
sg27
F2.583898525335826
sg32
g40
(g69
S'\xff\xff\xff\xff'
p3084
tp3085
Rp3086
sg39
g49
sg25
I139
sg14
I244
sg17
I64
sg37
g38
sg15
F1388.752579889784
sg31
g40
(g44
S'\xcat\xe6J\x94\x06\xbb?'
p3087
tp3088
Rp3089
sg50
g55
sg23
I137
sg26
I14
sg33
g40
(g69
S'\x01\x00\x00\x00'
p3090
tp3091
Rp3092
sg18
F1.5164120476110838
sg16
F1.0661295768804848
sg29
I0
sg28
S'l'
p3093
sg22
F2.283683936286252
sg19
I91
sg24
F2.3170631107059307
sg21
I93
sa(dp3094
g30
I1
sg20
F1.749901651230175
sg27
F3.2845066559966654
sg32
g40
(g69
S'\x01\x00\x00\x00'
p3095
tp3096
Rp3097
sg39
g49
sg25
I185
sg14
I245
sg17
I63
sg37
g38
sg15
F1391.354595846322
sg31
g40
(g44
S'\xcat\xe6J\x94\x06\xbb?'
p3098
tp3099
Rp3100
sg50
g55
sg23
I183
sg26
I48
sg33
g40
(g69
S'\x01\x00\x00\x00'
p3101
tp3102
Rp3103
sg18
F1.7166661961236969
sg16
F1.0495365968672559
sg29
I0
sg28
S'l'
p3104
sg22
F3.0510405167005956
sg19
I103
sg24
F3.0844024594989605
sg21
I105
sa(dp3105
g30
I1
sg20
F1.5829720491310582
sg27
F2.884072418382857
sg32
g40
(g69
S'\xff\xff\xff\xff'
p3106
tp3107
Rp3108
sg39
g49
sg25
I146
sg14
I246
sg17
I60
sg37
g38
sg15
F1394.6573145242292
sg31
g40
(g44
S'\x1ci\xcf\xa9\xb8R\xb8?'
p3109
tp3110
Rp3111
sg50
g55
sg23
I144
sg26
I19
sg33
g40
(g69
S'\xff\xff\xff\xff'
p3112
tp3113
Rp3114
sg18
F1.5496969979139976
sg16
F0.9993045012233779
sg29
I0
sg28
S'a'
p3115
sg22
F2.400349179224577
sg19
I93
sg24
F2.4337815151084214
sg21
I95
sa(dp3116
g30
I1
sg20
F1.7997990129515529
sg27
F3.317776941054035
sg32
g40
(g69
S'\x01\x00\x00\x00'
p3117
tp3118
Rp3119
sg39
g49
sg25
I176
sg14
I247
sg17
I68
sg37
g38
sg15
F1397.559590165387
sg31
g40
(g44
S'\xcat\xe6J\x94\x06\xbb?'
p3120
tp3121
Rp3122
sg50
g55
sg23
I174
sg26
I36
sg33
g40
(g69
S'\xff\xff\xff\xff'
p3123
tp3124
Rp3125
sg18
F1.7666258850949816
sg16
F1.1327526389504783
sg29
I0
sg28
S'a'
p3126
sg22
F2.9007460571592674
sg19
I106
sg24
F2.9340922348201275
sg21
I108
sa(dp3127
g30
I1
sg20
F1.9332702483516186
sg27
F3.918316108349245
sg32
g40
(g69
S'\xff\xff\xff\xff'
p3128
tp3129
Rp3130
sg39
g49
sg25
I209
sg14
I248
sg17
I68
sg37
g38
sg15
F1400.895445308066
sg31
g40
(g44
S'\xa1\xfaq\x1b\x82`\xbc?'
p3131
tp3132
Rp3133
sg50
g55
sg23
I207
sg26
I61
sg33
g40
(g69
S'\xff\xff\xff\xff'
p3134
tp3135
Rp3136
sg18
F1.8999896976165473
sg16
F1.1327126761316322
sg29
I0
sg28
S'a'
p3137
sg22
F3.4512793400790542
sg19
I114
sg24
F3.4845474253525026
sg21
I116
sa(dp3138
g30
I0
sg20
F1.733112890389748
sg27
F4.085019499238115
sg32
g40
(g69
S'\x01\x00\x00\x00'
p3139
tp3140
Rp3141
sg39
g49
sg25
I185
sg14
I249
sg17
I67
sg37
g38
sg15
F1404.8319041451323
sg31
g40
(g44
S'\xa1\xfaq\x1b\x82`\xbc?'
p3142
tp3143
Rp3144
sg50
g55
sg23
I183
sg26
I49
sg33
g40
(g69
S'\x01\x00\x00\x00'
p3145
tp3146
Rp3147
sg18
F1.6999005330144428
sg16
F1.1159719438874163
sg29
I0
sg28
g118
sg22
F3.050861234194599
sg19
I102
sg24
F3.084223176992964
sg21
I104
sa(dp3148
g30
I1
sg20
F1.7333867636625655
sg27
F3.401443572365679
sg32
g40
(g69
S'\x01\x00\x00\x00'
p3149
tp3150
Rp3151
sg39
g49
sg25
I187
sg14
I250
sg17
I71
sg37
g38
sg15
F1408.9182248173165
sg31
g40
(g44
S'\xcat\xe6J\x94\x06\xbb?'
p3152
tp3153
Rp3154
sg50
g55
sg23
I185
sg26
I51
sg33
g40
(g69
S'\xff\xff\xff\xff'
p3155
tp3156
Rp3157
sg18
F1.7000200547045097
sg16
F1.1830004996736534
sg29
I0
sg28
S'a'
p3158
sg22
F3.0845175815629773
sg19
I102
sg24
F3.1178743914933875
sg21
I104
sa(dp3159
g30
I1
sg20
F1.7665283613023348
sg27
F3.568078403302934
sg32
g40
(g69
S'\x01\x00\x00\x00'
p3160
tp3161
Rp3162
sg39
g49
sg25
I178
sg14
I251
sg17
I65
sg37
g38
sg15
F1412.3377044288209
sg31
g40
(g44
S'\xcat\xe6J\x94\x06\xbb?'
p3163
tp3164
Rp3165
sg50
g55
sg23
I176
sg26
I40
sg33
g40
(g69
S'\x01\x00\x00\x00'
p3166
tp3167
Rp3168
sg18
F1.7332261793781072
sg16
F1.0827859839773737
sg29
I0
sg28
S'l'
p3169
sg22
F2.934250252728816
sg19
I104
sg24
F2.9676030296832323
sg21
I106
sa(dp3170
g30
I1
sg20
F1.54971899575321
sg27
F3.4345503400545567
sg32
g40
(g69
S'\xff\xff\xff\xff'
p3171
tp3172
Rp3173
sg39
g49
sg25
I186
sg14
I252
sg17
I65
sg37
g38
sg15
F1415.9238507680711
sg31
g40
(g44
S'\xcat\xe6J\x94\x06\xbb?'
p3174
tp3175
Rp3176
sg50
g55
sg23
I184
sg26
I61
sg33
g40
(g69
S'\x01\x00\x00\x00'
p3177
tp3178
Rp3179
sg18
F1.5164696087012999
sg16
F1.0828013824648224
sg29
I0
sg28
S'l'
p3180
sg22
F3.0677049897494726
sg19
I91
sg24
F3.1010258698370308
sg21
I93
sa(dp3181
g30
I1
sg20
F1.833262512460351
sg27
F4.001678802771494
sg32
g40
(g69
S'\x01\x00\x00\x00'
p3182
tp3183
Rp3184
sg39
g49
sg25
I219
sg14
I253
sg17
I63
sg37
g38
sg15
F1419.3765409037587
sg31
g40
(g44
S'\xa1\xfaq\x1b\x82`\xbc?'
p3185
tp3186
Rp3187
sg50
g55
sg23
I217
sg26
I77
sg33
g40
(g69
S'\xff\xff\xff\xff'
p3188
tp3189
Rp3190
sg18
F1.799992227461189
sg16
F1.0493738127988763
sg29
I0
sg28
S'a'
p3191
sg22
F3.6180765884928405
sg19
I108
sg24
F3.65152028988814
sg21
I110
sa(dp3192
g30
I0
sg20
F1.7165063451393507
sg27
F3.551321539329365
sg32
g40
(g69
S'\x01\x00\x00\x00'
p3193
tp3194
Rp3195
sg39
g49
sg25
I153
sg14
I254
sg17
I63
sg37
g38
sg15
F1423.3963474032935
sg31
g40
(g44
S'\xcat\xe6J\x94\x06\xbb?'
p3196
tp3197
Rp3198
sg50
g55
sg23
I151
sg26
I18
sg33
g40
(g69
S'\x01\x00\x00\x00'
p3199
tp3200
Rp3201
sg18
F1.6831935308873653
sg16
F1.049481968919281
sg29
I0
sg28
g118
sg22
F2.517250165808946
sg19
I101
sg24
F2.550631906662602
sg21
I103
sa(dp3202
g30
I1
sg20
F1.6832958208979107
sg27
F2.8509326539351605
sg32
g40
(g69
S'\xff\xff\xff\xff'
p3203
tp3204
Rp3205
sg39
g49
sg25
I148
sg14
I255
sg17
I60
sg37
g38
sg15
F1426.9489719487028
sg31
g40
(g44
S'\xa1\xfaq\x1b\x82`\xbc?'
p3206
tp3207
Rp3208
sg50
g55
sg23
I146
sg26
I15
sg33
g40
(g69
S'\xff\xff\xff\xff'
p3209
tp3210
Rp3211
sg18
F1.6500614656833932
sg16
F0.9995926730916835
sg29
I0
sg28
S'a'
p3212
sg22
F2.4339384331251495
sg19
I99
sg24
F2.4672937765717506
sg21
I101
sa(dp3213
g30
I1
sg20
F1.5496559352613986
sg27
F3.884901737445034
sg32
g40
(g69
S'\xff\xff\xff\xff'
p3214
tp3215
Rp3216
sg39
g49
sg25
I203
sg14
I256
sg17
I65
sg37
g38
sg15
F1429.818074095354
sg31
g40
(g44
S'\xf3\xeeZz\xa6\xac\xb9?'
p3217
tp3218
Rp3219
sg50
g55
sg23
I201
sg26
I78
sg33
g40
(g69
S'\xff\xff\xff\xff'
p3220
tp3221
Rp3222
sg18
F1.5163530200952664
sg16
F1.0828164143604226
sg29
I0
sg28
S'a'
p3223
sg22
F3.351131551200524
sg19
I91
sg24
F3.3846067829290405
sg21
I93
sa(dp3224
g30
I1
sg20
F1.6830872079590335
sg27
F3.401222860615235
sg32
g40
(g69
S'\xff\xff\xff\xff'
p3225
tp3226
Rp3227
sg39
g49
sg25
I184
sg14
I257
sg17
I67
sg37
g38
sg15
F1433.721139459405
sg31
g40
(g44
S'\xcat\xe6J\x94\x06\xbb?'
p3228
tp3229
Rp3230
sg50
g55
sg23
I182
sg26
I51
sg33
g40
(g69
S'\xff\xff\xff\xff'
p3231
tp3232
Rp3233
sg18
F1.649759728461504
sg16
F1.1161479267757386
sg29
I0
sg28
S'a'
p3234
sg22
F3.0342649546219036
sg19
I99
sg24
F3.067659527529031
sg21
I101
sa(dp3235
g30
I1
sg20
F1.6164986091898754
sg27
F3.2511256484431215
sg32
g40
(g69
S'\x01\x00\x00\x00'
p3236
tp3237
Rp3238
sg39
g49
sg25
I174
sg14
I258
sg17
I65
sg37
g38
sg15
F1437.1404665524606
sg31
g40
(g44
S'\xcat\xe6J\x94\x06\xbb?'
p3239
tp3240
Rp3241
sg50
g55
sg23
I172
sg26
I45
sg33
g40
(g69
S'\xff\xff\xff\xff'
p3242
tp3243
Rp3244
sg18
F1.583171862992458
sg16
F1.0827790180337615
sg29
I0
sg28
S'a'
p3245
sg22
F2.8674244438298047
sg19
I95
sg24
F2.900872544851154
sg21
I97
sa(dp3246
g30
I1
sg20
F1.7999163347994909
sg27
F3.7348463211674243
sg32
g40
(g69
S'\xff\xff\xff\xff'
p3247
tp3248
Rp3249
sg39
g49
sg25
I209
sg14
I259
sg17
I61
sg37
g38
sg15
F1440.4096410720376
sg31
g40
(g44
S'\xcat\xe6J\x94\x06\xbb?'
p3250
tp3251
Rp3252
sg50
g55
sg23
I207
sg26
I69
sg33
g40
(g69
S'\x01\x00\x00\x00'
p3253
tp3254
Rp3255
sg18
F1.7667234088876285
sg16
F1.0160954618477263
sg29
I0
sg28
S'l'
p3256
sg22
F3.451263208349701
sg19
I106
sg24
F3.484640916227363
sg21
I108
sa(dp3257
g30
I1
sg20
F2.0002328106202185
sg27
F3.067787481646519
sg32
g40
(g69
S'\xff\xff\xff\xff'
p3258
tp3259
Rp3260
sg39
g49
sg25
I157
sg14
I260
sg17
I70
sg37
g38
sg15
F1444.1623811795143
sg31
g40
(g44
S'\xf3\xeeZz\xa6\xac\xb9?'
p3261
tp3262
Rp3263
sg50
g55
sg23
I155
sg26
I5
sg33
g40
(g69
S'\x01\x00\x00\x00'
p3264
tp3265
Rp3266
sg18
F1.9669522598851472
sg16
F1.1663400596589781
sg29
I0
sg28
S'l'
p3267
sg22
F2.584153333795257
sg19
I118
sg24
F2.617526642163284
sg21
I120
sa(dp3268
g30
I1
sg20
F1.8665338974096812
sg27
F2.7839704583748244
sg32
g40
(g69
S'\xff\xff\xff\xff'
p3269
tp3270
Rp3271
sg39
g49
sg25
I148
sg14
I261
sg17
I72
sg37
g38
sg15
F1447.2483495195047
sg31
g40
(g44
S'\xa1\xfaq\x1b\x82`\xbc?'
p3272
tp3273
Rp3274
sg50
g55
sg23
I146
sg26
I4
sg33
g40
(g69
S'\x01\x00\x00\x00'
p3275
tp3276
Rp3277
sg18
F1.833232082077302
sg16
F1.199518320383504
sg29
I0
sg28
S'l'
p3278
sg22
F2.4337734492728487
sg19
I110
sg24
F2.4670719648711383
sg21
I112
sa(dp3279
g30
I1
sg20
F1.8999468018300831
sg27
F3.9015999404364266
sg32
g40
(g69
S'\xff\xff\xff\xff'
p3280
tp3281
Rp3282
sg39
g49
sg25
I185
sg14
I262
sg17
I64
sg37
g38
sg15
F1450.0505481315195
sg31
g40
(g44
S'\xcat\xe6J\x94\x06\xbb?'
p3283
tp3284
Rp3285
sg50
g55
sg23
I183
sg26
I39
sg33
g40
(g69
S'\xff\xff\xff\xff'
p3286
tp3287
Rp3288
sg18
F1.8666442532557994
sg16
F1.0661251773126423
sg29
I0
sg28
S'a'
p3289
sg22
F3.050936026906129
sg19
I112
sg24
F3.0843503979267552
sg21
I114
sa(dp3290
g30
I0
sg20
F1.5329364676726982
sg27
F4.034941755235195
sg32
g40
(g69
S'\x01\x00\x00\x00'
p3291
tp3292
Rp3293
sg39
g49
sg25
I188
sg14
I263
sg17
I61
sg37
g38
sg15
F1453.9702812682372
sg31
g40
(g44
S'\xf3\xeeZz\xa6\xac\xb9?'
p3294
tp3295
Rp3296
sg50
g55
sg23
I186
sg26
I64
sg33
g40
(g69
S'\xff\xff\xff\xff'
p3297
tp3298
Rp3299
sg18
F1.499688180454541
sg16
F1.0159814397338778
sg29
I0
sg28
S'l'
p3300
sg22
F3.100932012370322
sg19
I90
sg24
F3.1342855226248503
sg21
I92
sa(dp3301
g30
I1
sg20
F1.866558461682871
sg27
F3.1175983184948564
sg32
g40
(g69
S'\x01\x00\x00\x00'
p3302
tp3303
Rp3304
sg39
g49
sg25
I163
sg14
I264
sg17
I60
sg37
g38
sg15
F1458.0234387115925
sg31
g40
(g44
S'\xcat\xe6J\x94\x06\xbb?'
p3305
tp3306
Rp3307
sg50
g55
sg23
I161
sg26
I19
sg33
g40
(g69
S'\xff\xff\xff\xff'
p3308
tp3309
Rp3310
sg18
F1.8332507802988403
sg16
F0.9992660050047562
sg29
I0
sg28
S'a'
p3311
sg22
F2.683982520538848
sg19
I110
sg24
F2.717277003219351
sg21
I112
sa(dp3312
g30
I1
sg20
F1.783510336652398
sg27
F3.0846433360129595
sg32
g40
(g69
S'\xff\xff\xff\xff'
p3313
tp3314
Rp3315
sg39
g49
sg25
I163
sg14
I265
sg17
I62
sg37
g38
sg15
F1480.3905135729
sg31
g40
(g44
S'\xcat\xe6J\x94\x06\xbb?'
p3316
tp3317
Rp3318
sg50
g55
sg23
I161
sg26
I24
sg33
g40
(g69
S'\x01\x00\x00\x00'
p3319
tp3320
Rp3321
sg18
F1.7502627826761454
sg16
F1.0330415074131452
sg29
I0
sg28
S'l'
p3322
sg22
F2.684355017496273
sg19
I105
sg24
F2.717670398124028
sg21
I107
sa(dp3323
g30
I1
sg20
F2.050102674984373
sg27
F4.018367106793448
sg32
g40
(g69
S'\x01\x00\x00\x00'
p3324
tp3325
Rp3326
sg39
g49
sg25
I223
sg14
I266
sg17
I72
sg37
g38
sg15
F1483.493347299518
sg31
g40
(g44
S'\xcat\xe6J\x94\x06\xbb?'
p3327
tp3328
Rp3329
sg50
g55
sg23
I221
sg26
I68
sg33
g40
(g69
S'\x01\x00\x00\x00'
p3330
tp3331
Rp3332
sg18
F2.016858787392266
sg16
F1.1995553501183167
sg29
I0
sg28
S'l'
p3333
sg22
F3.684825771546457
sg19
I121
sg24
F3.7181737823411822
sg21
I123
sa(dp3334
g30
I0
sg20
F1.7664960977854207
sg27
F4.18521898315521
sg32
g40
(g69
S'\x01\x00\x00\x00'
p3335
tp3336
Rp3337
sg39
g49
sg25
I214
sg14
I267
sg17
I63
sg37
g38
sg15
F1487.529867033998
sg31
g40
(g44
S'\x00\x00\x00\x00\x00\x00\x00\x00'
p3338
tp3339
Rp3340
sg50
g55
sg23
I212
sg26
F76.0
sg33
g40
(g69
S'\x01\x00\x00\x00'
p3341
tp3342
Rp3343
sg18
F1.7332764078164473
sg16
F1.0493507150677033
sg29
I0
sg28
S'l'
p3344
sg22
F3.534628835739568
sg19
I104
sg24
F3.568026708322577
sg21
I106
sa(dp3345
g30
I0
sg20
F1.6998202409013174
sg27
F3.2677857218659483
sg32
g40
(g69
S'\xff\xff\xff\xff'
p3346
tp3347
Rp3348
sg39
g49
sg25
I136
sg14
I268
sg17
I66
sg37
g38
sg15
F1491.7331033580122
sg31
g40
(g44
S'\xcat\xe6J\x94\x06\xbb?'
p3349
tp3350
Rp3351
sg50
g55
sg23
I134
sg26
I2
sg33
g40
(g69
S'\xff\xff\xff\xff'
p3352
tp3353
Rp3354
sg18
F1.6665158591931686
sg16
F1.0994027950218879
sg29
I0
sg28
g118
sg22
F2.233621957420837
sg19
I100
sg24
F2.2669828002690338
sg21
I102
sa(dp3355
g30
I1
sg20
F2.0001844153157435
sg27
F2.8676693532033823
sg32
g40
(g69
S'\x01\x00\x00\x00'
p3356
tp3357
Rp3358
sg39
g49
sg25
I154
sg14
I269
sg17
I72
sg37
g38
sg15
F1495.0021913527162
sg31
g40
(g44
S'\xcat\xe6J\x94\x06\xbb?'
p3359
tp3360
Rp3361
sg50
g55
sg23
I152
sg26
I2
sg33
g40
(g69
S'\x01\x00\x00\x00'
p3362
tp3363
Rp3364
sg18
F1.96689689863706
sg16
F1.1997309662983753
sg29
I0
sg28
S'l'
p3365
sg22
F2.5339901647530496
sg19
I118
sg24
F2.567349541117437
sg21
I120
sa(dp3366
g30
I0
sg20
F1.8666497527738102
sg27
F3.9684008184704
sg32
g40
(g69
S'\x01\x00\x00\x00'
p3367
tp3368
Rp3369
sg39
g49
sg25
I205
sg14
I270
sg17
I65
sg37
g38
sg15
F1497.8879165431135
sg31
g40
(g44
S'\x00\x00\x00\x00\x00\x00\x00\x00'
p3370
tp3371
Rp3372
sg50
g55
sg23
I203
sg26
F61.0
sg33
g40
(g69
S'\x01\x00\x00\x00'
p3373
tp3374
Rp3375
sg18
F1.8334032987477258
sg16
F1.0827467545168474
sg29
I0
sg28
S'l'
p3376
sg22
F3.384509259078186
sg19
I110
sg24
F3.417972758586984
sg21
I112
sa(dp3377
g30
I1
sg20
F1.7998426420381293
sg27
F3.2510453562717885
sg32
g40
(g69
S'\x01\x00\x00\x00'
p3378
tp3379
Rp3380
sg39
g49
sg25
I168
sg14
I271
sg17
I63
sg37
g38
sg15
F1501.874362933042
sg31
g40
(g44
S'\xcat\xe6J\x94\x06\xbb?'
p3381
tp3382
Rp3383
sg50
g55
sg23
I166
sg26
I28
sg33
g40
(g69
S'\x01\x00\x00\x00'
p3384
tp3385
Rp3386
sg18
F1.766574556764681
sg16
F1.0493829785846174
sg29
I0
sg28
S'l'
p3387
sg22
F2.7673243168974295
sg19
I106
sg24
F2.8006785603938624
sg21
I108
sa(dp3388
g30
I1
sg20
F1.9500755076296628
sg27
F3.2344439437729307
sg32
g40
(g69
S'\x01\x00\x00\x00'
p3389
tp3390
Rp3391
sg39
g49
sg25
I178
sg14
I272
sg17
I70
sg37
g38
sg15
F1505.1435059224023
sg31
g40
(g44
S'\xcat\xe6J\x94\x06\xbb?'
p3392
tp3393
Rp3394
sg50
g55
sg23
I176
sg26
I29
sg33
g40
(g69
S'\xff\xff\xff\xff'
p3395
tp3396
Rp3397
sg18
F1.9167645265697502
sg16
F1.1662286038626917
sg29
I0
sg28
S'a'
p3398
sg22
F2.9342220221296884
sg19
I115
sg24
F2.9675850647618063
sg21
I117
sa(dp3399
g30
I0
sg20
F1.9500318785430863
sg27
F4.38533931132406
sg32
g40
(g69
S'\xff\xff\xff\xff'
p3400
tp3401
Rp3402
sg39
g49
sg25
I203
sg14
I273
sg17
I65
sg37
g38
sg15
F1508.3961101931054
sg31
g40
(g44
S'\xf3\xeeZz\xa6\xac\xb9?'
p3403
tp3404
Rp3405
sg50
g55
sg23
I201
sg26
I54
sg33
g40
(g69
S'\xff\xff\xff\xff'
p3406
tp3407
Rp3408
sg18
F1.9168646167381667
sg16
F1.082811281492468
sg29
I0
sg28
g118
sg22
F3.351248873048462
sg19
I115
sg24
F3.384610815788619
sg21
I117
sa(dp3409
g30
I0
sg20
F1.5498773803119548
sg27
F3.3013328132219613
sg32
g40
(g69
S'\xff\xff\xff\xff'
p3410
tp3411
Rp3412
sg39
g49
sg25
I182
sg14
I274
sg17
I61
sg37
g38
sg15
F1512.782746277866
sg31
g40
(g44
S'\xcat\xe6J\x94\x06\xbb?'
p3413
tp3414
Rp3415
sg50
g55
sg23
I180
sg26
I57
sg33
g40
(g69
S'\x01\x00\x00\x00'
p3416
tp3417
Rp3418
sg18
F1.5166030623367988
sg16
F1.0161383576923981
sg29
I0
sg28
S'a'
p3419
sg22
F3.0010397651349194
sg19
I91
sg24
F3.0344211393385194
sg21
I93
sa(dp3420
g30
I1
sg20
F1.7164212867501192
sg27
F3.2676874647731893
sg32
g40
(g69
S'\xff\xff\xff\xff'
p3421
tp3422
Rp3423
sg39
g49
sg25
I136
sg14
I275
sg17
I66
sg37
g38
sg15
F1516.1021847900702
sg31
g40
(g44
S'\x00\x00\x00\x00\x00\x00\x00\x00'
p3424
tp3425
Rp3426
sg50
g55
sg23
I134
sg26
F1.0
sg33
g40
(g69
S'\xff\xff\xff\xff'
p3427
tp3428
Rp3429
sg18
F1.6831858315854333
sg16
F1.0993452339316718
sg29
I0
sg28
g118
sg22
F2.2335867608198896
sg19
I101
sg24
F2.2669765675091185
sg21
I103
sa(dp3430
g30
I0
sg20
F1.6666379472590052
sg27
F2.7676117555238307
sg32
g40
(g69
S'\xff\xff\xff\xff'
p3431
tp3432
Rp3433
sg39
g49
sg25
I138
sg14
I276
sg17
I66
sg37
g38
sg15
F1519.371218156768
sg31
g40
(g44
S'\xa1\xfaq\x1b\x82`\xbc?'
p3434
tp3435
Rp3436
sg50
g55
sg23
I136
sg26
I6
sg33
g40
(g69
S'\xff\xff\xff\xff'
p3437
tp3438
Rp3439
sg18
F1.633299468900077
sg16
F1.099615074286703
sg29
I1
sg28
S'a'
p3440
sg22
F2.2671393516357057
sg19
I98
sg24
F2.3005064272438176
sg21
I100
sa(dp3441
g30
I1
sg20
F1.5329276685370132
sg27
F3.567905353556853
sg32
g40
(g69
S'\x01\x00\x00\x00'
p3442
tp3443
Rp3444
sg39
g49
sg25
I191
sg14
I277
sg17
I64
sg37
g38
sg15
F1522.1569642084069
sg31
g40
(g44
S'\xcat\xe6J\x94\x06\xbb?'
p3445
tp3446
Rp3447
sg50
g55
sg23
I189
sg26
I67
sg33
g40
(g69
S'\x01\x00\x00\x00'
p3448
tp3449
Rp3450
sg18
F1.499732909433078
sg16
F1.0659752252977341
sg29
I0
sg28
S'l'
p3451
sg22
F3.150909666204825
sg19
I90
sg24
F3.1843042391119525
sg21
I92
sa(dp3452
g30
I0
sg20
F1.7332456107833423
sg27
F3.684839336841833
sg32
g40
(g69
S'\xff\xff\xff\xff'
p3453
tp3454
Rp3455
sg39
g49
sg25
I161
sg14
I278
sg17
I62
sg37
g38
sg15
F1525.7430192565662
sg31
g40
(g44
S'\xf3\xeeZz\xa6\xac\xb9?'
p3456
tp3457
Rp3458
sg50
g55
sg23
I159
sg26
I25
sg33
g40
(g69
S'\xff\xff\xff\xff'
p3459
tp3460
Rp3461
sg18
F1.6999551610206254
sg16
F1.0327621346223168
sg29
I0
sg28
g118
sg22
F2.650699036719743
sg19
I102
sg24
F2.6841218402259983
sg21
I104
sa(dp3462
g30
I0
sg20
F1.6997245502425358
sg27
F3.234300591109786
sg32
g40
(g69
S'\x01\x00\x00\x00'
p3463
tp3464
Rp3465
sg39
g49
sg25
I134
sg14
I279
sg17
I66
sg37
g38
sg15
F1529.429165999114
sg31
g40
(g44
S'\xcat\xe6J\x94\x06\xbb?'
p3466
tp3467
Rp3468
sg50
g55
sg23
I132
sg26
I0
sg33
g40
(g69
S'\xff\xff\xff\xff'
p3469
tp3470
Rp3471
sg18
F1.6664777295663953
sg16
F1.0993782306904905
sg29
I0
sg28
g118
sg22
F2.200257814838551
sg19
I100
sg24
F2.233500235946849
sg21
I102
sa(dp3472
g30
I1
sg20
F1.8833230249001645
sg27
F3.3345008082687855
sg32
g40
(g69
S'\xff\xff\xff\xff'
p3473
tp3474
Rp3475
sg39
g49
sg25
I180
sg14
I280
sg17
I70
sg37
g38
sg15
F1532.6649543783278
sg31
g40
(g44
S'\xcat\xe6J\x94\x06\xbb?'
p3476
tp3477
Rp3478
sg50
g55
sg23
I178
sg26
I35
sg33
g40
(g69
S'\x01\x00\x00\x00'
p3479
tp3480
Rp3481
sg18
F1.8501465973677114
sg16
F1.1661431788816117
sg29
I0
sg28
S'l'
p3482
sg22
F2.9675747991423123
sg19
I111
sg24
F3.000982204102911
sg21
I113
sa(dp3483
g30
I1
sg20
F1.8496597115299664
sg27
F3.7846171951969154
sg32
g40
(g69
S'\xff\xff\xff\xff'
p3484
tp3485
Rp3486
sg39
g49
sg25
I167
sg14
I281
sg17
I60
sg37
g38
sg15
F1536.0178211933817
sg31
g40
(g44
S'\x00\x00\x00\x00\x00\x00\x00\x00'
p3487
tp3488
Rp3489
sg50
g55
sg23
I165
sg26
F24.0
sg33
g40
(g69
S'\xff\xff\xff\xff'
p3490
tp3491
Rp3492
sg18
F1.8164682521601208
sg16
F0.9991039541200735
sg29
I0
sg28
g118
sg22
F2.7504787282668985
sg19
I109
sg24
F2.7838362714392133
sg21
I111
sa(dp3493
g30
I1
sg20
F1.5331161167705432
sg27
F3.3346426943899132
sg32
g40
(g69
S'\xff\xff\xff\xff'
p3494
tp3495
Rp3496
sg39
g49
sg25
I179
sg14
I282
sg17
I65
sg37
g38
sg15
F1539.8039368090103
sg31
g40
(g44
S'\xcat\xe6J\x94\x06\xbb?'
p3497
tp3498
Rp3499
sg50
g55
sg23
I177
sg26
I55
sg33
g40
(g69
S'\x01\x00\x00\x00'
p3500
tp3501
Rp3502
sg18
F1.4998685628524981
sg16
F1.082936302642338
sg29
I0
sg28
S'l'
p3503
sg22
F2.951069443952292
sg19
I90
sg24
F2.98435769387288
sg21
I92
sa(dp3504
g30
I1
sg20
F2.0001048564445227
sg27
F3.56807437032694
sg32
g40
(g69
S'\xff\xff\xff\xff'
p3505
tp3506
Rp3507
sg39
g49
sg25
I194
sg14
I283
sg17
I71
sg37
g38
sg15
F1543.156632407452
sg31
g40
(g44
S'\xf3\xeeZz\xa6\xac\xb9?'
p3508
tp3509
Rp3510
sg50
g55
sg23
I192
sg26
I42
sg33
g40
(g69
S'\x01\x00\x00\x00'
p3511
tp3512
Rp3513
sg18
F1.966834204737097
sg16
F1.1828894105856307
sg29
I0
sg28
S'l'
p3514
sg22
F3.201080901140813
sg19
I118
sg24
F3.234478773723822
sg21
I120
sa(dp3515
g30
I1
sg20
F1.6497322311624885
sg27
F3.2510702871368267
sg32
g40
(g69
S'\xff\xff\xff\xff'
p3516
tp3517
Rp3518
sg39
g49
sg25
I174
sg14
I284
sg17
I66
sg37
g38
sg15
F1546.742756748863
sg31
g40
(g44
S'\xcat\xe6J\x94\x06\xbb?'
p3519
tp3520
Rp3521
sg50
g55
sg23
I172
sg26
I43
sg33
g40
(g69
S'\x01\x00\x00\x00'
p3522
tp3523
Rp3524
sg18
F1.6165638694656081
sg16
F1.0994251594529487
sg29
I0
sg28
S'l'
p3525
sg22
F2.8674094119342044
sg19
I97
sg24
F2.900852380087599
sg21
I99
sa(dp3526
g30
I1
sg20
F1.7332041815388948
sg27
F3.01761038065888
sg32
g40
(g69
S'\xff\xff\xff\xff'
p3527
tp3528
Rp3529
sg39
g49
sg25
I162
sg14
I285
sg17
I60
sg37
g38
sg15
F1550.0119342015241
sg31
g40
(g44
S'\xa1\xfaq\x1b\x82`\xbc?'
p3530
tp3531
Rp3532
sg50
g55
sg23
I160
sg26
I26
sg33
g40
(g69
S'\x01\x00\x00\x00'
p3533
tp3534
Rp3535
sg18
F1.69991006545024
sg16
F0.9993470304179937
sg29
I0
sg28
S'l'
p3536
sg22
F2.667334545927588
sg19
I102
sg24
F2.700691355857998
sg21
I104
sa(dp3537
g30
I1
sg20
F1.8332936760853045
sg27
F3.2511696441215463
sg32
g40
(g69
S'\x01\x00\x00\x00'
p3538
tp3539
Rp3540
sg39
g49
sg25
I164
sg14
I286
sg17
I72
sg37
g38
sg15
F1553.0476858442998
sg31
g40
(g44
S'\xcat\xe6J\x94\x06\xbb?'
p3541
tp3542
Rp3543
sg50
g55
sg23
I162
sg26
I22
sg33
g40
(g69
S'\x01\x00\x00\x00'
p3544
tp3545
Rp3546
sg18
F1.8000571210868657
sg16
F1.1995175870833918
sg29
I0
sg28
S'l'
p3547
sg22
F2.7007547829998657
sg19
I108
sg24
F2.734117092390079
sg21
I110
sa(dp3548
g30
I1
sg20
F1.7832591944606975
sg27
F3.985123952385038
sg32
g40
(g69
S'\x01\x00\x00\x00'
p3549
tp3550
Rp3551
sg39
g49
sg25
I217
sg14
I287
sg17
I69
sg37
g38
sg15
F1556.3168614637689
sg31
g40
(g44
S'\xf3\xeeZz\xa6\xac\xb9?'
p3552
tp3553
Rp3554
sg50
g55
sg23
I215
sg26
I78
sg33
g40
(g69
S'\x01\x00\x00\x00'
p3555
tp3556
Rp3557
sg18
F1.7499881761614233
sg16
F1.1495164688676596
sg29
I0
sg28
S'l'
p3558
sg22
F3.584804836893454
sg19
I105
sg24
F3.6181902440148406
sg21
I107
sa(dp3559
g30
I0
sg20
F1.7831594708841294
sg27
F4.185087729303632
sg32
g40
(g69
S'\xff\xff\xff\xff'
p3560
tp3561
Rp3562
sg39
g49
sg25
I191
sg14
I288
sg17
I65
sg37
g38
sg15
F1560.320040153456
sg31
g40
(g44
S'\xcat\xe6J\x94\x06\xbb?'
p3563
tp3564
Rp3565
sg50
g55
sg23
I189
sg26
I52
sg33
g40
(g69
S'\xff\xff\xff\xff'
p3566
tp3567
Rp3568
sg18
F1.7498726874473505
sg16
F1.0826613294775598
sg29
I0
sg28
g118
sg22
F3.1509657606948167
sg19
I105
sg24
F3.184303139219992
sg21
I107
sa(dp3569
g30
I0
sg20
F1.5165616330341436
sg27
F2.8009286026936024
sg32
g40
(g69
S'\x01\x00\x00\x00'
p3570
tp3571
Rp3572
sg39
g49
sg25
I144
sg14
I289
sg17
I61
sg37
g38
sg15
F1564.5064946825732
sg31
g40
(g44
S'\xcat\xe6J\x94\x06\xbb?'
p3573
tp3574
Rp3575
sg50
g55
sg23
I142
sg26
I21
sg33
g40
(g69
S'\xff\xff\xff\xff'
p3576
tp3577
Rp3578
sg18
F1.4831945574260317
sg16
F1.0161629219655879
sg29
I1
sg28
S'a'
p3579
sg22
F2.3673102383036166
sg19
I89
sg24
F2.400576490384992
sg21
I91
sa(dp3580
g30
I1
sg20
F1.8999981301603839
sg27
F3.101001672213897
sg32
g40
(g69
S'\x01\x00\x00\x00'
p3581
tp3582
Rp3583
sg39
g49
sg25
I169
sg14
I290
sg17
I68
sg37
g38
sg15
F1567.3255040533259
sg31
g40
(g44
S'\xcat\xe6J\x94\x06\xbb?'
p3584
tp3585
Rp3586
sg50
g55
sg23
I167
sg26
I23
sg33
g40
(g69
S'\x01\x00\x00\x00'
p3587
tp3588
Rp3589
sg18
F1.8666908154264092
sg16
F1.1328556622029282
sg29
I0
sg28
S'l'
p3590
sg22
F2.7840771478950046
sg19
I112
sg24
F2.817470620968379
sg21
I114
sa(dp3591
g30
I1
sg20
F1.649786859168671
sg27
F2.8008640756597742
sg32
g40
(g69
S'\x01\x00\x00\x00'
p3592
tp3593
Rp3594
sg39
g49
sg25
I148
sg14
I291
sg17
I65
sg37
g38
sg15
F1570.4446176571655
sg31
g40
(g44
S'\xa1\xfaq\x1b\x82`\xbc?'
p3595
tp3596
Rp3597
sg50
g55
sg23
I146
sg26
I17
sg33
g40
(g69
S'\x01\x00\x00\x00'
p3598
tp3599
Rp3600
sg18
F1.6165019088657573
sg16
F1.0828123814426363
sg29
I0
sg28
S'l'
p3601
sg22
F2.4338896712870337
sg19
I97
sg24
F2.467239148565568
sg21
I99
sa(dp3602
g30
I1
sg20
F1.6831088391481899
sg27
F3.7515360917313956
sg32
g40
(g69
S'\x01\x00\x00\x00'
p3603
tp3604
Rp3605
sg39
g49
sg25
I204
sg14
I292
sg17
I62
sg37
g38
sg15
F1573.2634928409825
sg31
g40
(g44
S'\xa1\xfaq\x1b\x82`\xbc?'
p3606
tp3607
Rp3608
sg50
g55
sg23
I202
sg26
I71
sg33
g40
(g69
S'\xff\xff\xff\xff'
p3609
tp3610
Rp3611
sg18
F1.6498572523123585
sg16
F1.0327064067823812
sg29
I0
sg28
S'a'
p3612
sg22
F3.3678700836608186
sg19
I99
sg24
F3.4012312931590714
sg21
I101
sa(dp3613
g30
I1
sg20
F1.7832148321322165
sg27
F3.9016160722239874
sg32
g40
(g69
S'\xff\xff\xff\xff'
p3614
tp3615
Rp3616
sg39
g49
sg25
I216
sg14
I293
sg17
I61
sg37
g38
sg15
F1577.0331144669326
sg31
g40
(g44
S'\xcat\xe6J\x94\x06\xbb?'
p3617
tp3618
Rp3619
sg50
g55
sg23
I214
sg26
I77
sg33
g40
(g69
S'\x01\x00\x00\x00'
p3620
tp3621
Rp3622
sg18
F1.7499397808569483
sg16
F1.0159975714050233
sg29
I0
sg28
S'l'
p3623
sg22
F3.568011676426977
sg19
I105
sg24
F3.6013688530074432
sg21
I107
sa(dp3624
g30
I1
sg20
F1.7331950157531537
sg27
F2.9675663666566834
sg32
g40
(g69
S'\x01\x00\x00\x00'
p3625
tp3626
Rp3627
sg39
g49
sg25
I144
sg14
I294
sg17
I72
sg37
g38
sg15
F1580.9527834432665
sg31
g40
(g44
S'\xf3\xeeZz\xa6\xac\xb9?'
p3628
tp3629
Rp3630
sg50
g55
sg23
I142
sg26
I8
sg33
g40
(g69
S'\x01\x00\x00\x00'
p3631
tp3632
Rp3633
sg18
F1.6999199645360932
sg16
F1.199500355462078
sg29
I0
sg28
S'l'
p3634
sg22
F2.3671588197466917
sg19
I102
sg24
F2.4004382705898024
sg21
I104
sa(dp3635
g30
I1
sg20
F1.9666996512678452
sg27
F3.6848070733831264
sg32
g40
(g69
S'\x01\x00\x00\x00'
p3636
tp3637
Rp3638
sg39
g49
sg25
I202
sg14
I295
sg17
I71
sg37
g38
sg15
F1583.9385211357148
sg31
g40
(g44
S'\xf3\xeeZz\xa6\xac\xb9?'
p3639
tp3640
Rp3641
sg50
g55
sg23
I200
sg26
I52
sg33
g40
(g69
S'\xff\xff\xff\xff'
p3642
tp3643
Rp3644
sg18
F1.9334531971835531
sg16
F1.1828996762633324
sg29
I0
sg28
S'a'
p3645
sg22
F3.334460845508147
sg19
I116
sg24
F3.3678623844170943
sg21
I118
sa(dp3646
g30
I0
sg20
F1.9165907435235567
sg27
F4.485432105662767
sg32
g40
(g69
S'\x01\x00\x00\x00'
p3647
tp3648
Rp3649
sg39
g49
sg25
I209
sg14
I296
sg17
I70
sg37
g38
sg15
F1587.6414544393192
sg31
g40
(g44
S'\xf3\xeeZz\xa6\xac\xb9?'
p3650
tp3651
Rp3652
sg50
g55
sg23
I207
sg26
I62
sg33
g40
(g69
S'\xff\xff\xff\xff'
p3653
tp3654
Rp3655
sg18
F1.8833567549590953
sg16
F1.1660749855800532
sg29
I0
sg28
g118
sg22
F3.451199414615985
sg19
I113
sg24
F3.4845404594088905
sg21
I115
sa(dp3656
g30
I1
sg20
F1.8166332360706292
sg27
F3.9350088119972497
sg32
g40
(g69
S'\x01\x00\x00\x00'
p3657
tp3658
Rp3659
sg39
g49
sg25
I196
sg14
I297
sg17
I69
sg37
g38
sg15
F1592.128193950688
sg31
g40
(g44
S'x\x80\xfd\xebo\xba\xbd?'
p3660
tp3661
Rp3662
sg50
g55
sg23
I194
sg26
I55
sg33
g40
(g69
S'\x01\x00\x00\x00'
p3663
tp3664
Rp3665
sg18
F1.7833864153944887
sg16
F1.1496007940149866
sg29
I0
sg28
S'l'
p3666
sg22
F3.23460306157358
sg19
I107
sg24
F3.267885078850668
sg21
I109
sa(dp3667
g30
I1
sg20
F1.6330607921699993
sg27
F3.2343508195481263
sg32
g40
(g69
S'\xff\xff\xff\xff'
p3668
tp3669
Rp3670
sg39
g49
sg25
I134
sg14
I298
sg17
I65
sg37
g38
sg15
F1596.0813997527002
sg31
g40
(g44
S'\x00\x00\x00\x00\x00\x00\x00\x00'
p3671
tp3672
Rp3673
sg50
g55
sg23
I132
sg26
F4.0
sg33
g40
(g69
S'\xff\xff\xff\xff'
p3674
tp3675
Rp3676
sg18
F1.599814338143915
sg16
F1.0826290659606457
sg29
I0
sg28
g118
sg22
F2.200282745703589
sg19
I96
sg24
F2.2336362559581175
sg21
I98
sa(dp3677
g30
I1
sg20
F1.4497750535956584
sg27
F3.184509552374948
sg32
g40
(g69
S'\x01\x00\x00\x00'
p3678
tp3679
Rp3680
sg39
g49
sg25
I172
sg14
I299
sg17
I60
sg37
g38
sg15
F1599.3170488121687
sg31
g40
(g44
S'\xcat\xe6J\x94\x06\xbb?'
p3681
tp3682
Rp3683
sg50
g55
sg23
I170
sg26
I53
sg33
g40
(g69
S'\x01\x00\x00\x00'
p3684
tp3685
Rp3686
sg18
F1.416475438105408
sg16
F0.9994702183757909
sg29
I0
sg28
S'l'
p3687
sg22
F2.834328308410477
sg19
I85
sg24
F2.867714815423824
sg21
I87
sa(dp3688
g30
I1
sg20
F1.899896940041799
sg27
F3.751403004687745
sg32
g40
(g69
S'\xff\xff\xff\xff'
p3689
tp3690
Rp3691
sg39
g49
sg25
I165
sg14
I300
sg17
I65
sg37
g38
sg15
F1602.5197832185077
sg31
g40
(g44
S'\x00\x00\x00\x00\x00\x00\x00\x00'
p3692
tp3693
Rp3694
sg50
g55
sg23
I163
sg26
F19.0
sg33
g40
(g69
S'\xff\xff\xff\xff'
p3695
tp3696
Rp3697
sg18
F1.8665962246595882
sg16
F1.082672695047222
sg29
I0
sg28
g118
sg22
F2.7172806694870815
sg19
I112
sg24
F2.7506466452032328
sg21
I114
sa(dp3698
g30
I1
sg20
F1.7333369018742815
sg27
F3.3679980377783068
sg32
g40
(g69
S'\x01\x00\x00\x00'
p3699
tp3700
Rp3701
sg39
g49
sg25
I180
sg14
I301
sg17
I63
sg37
g38
sg15
F1606.272476763872
sg31
g40
(g44
S'\xf3\xeeZz\xa6\xac\xb9?'
p3702
tp3703
Rp3704
sg50
g55
sg23
I178
sg26
I44
sg33
g40
(g69
S'\xff\xff\xff\xff'
p3705
tp3706
Rp3707
sg18
F1.7000959473080002
sg16
F1.049540996493306
sg29
I0
sg28
S'a'
p3708
sg22
F2.967762880725786
sg19
I102
sg24
F3.001032065891195
sg21
I104
sa(dp3709
g30
I1
sg20
F1.7498723207972944
sg27
F3.0510251182713546
sg32
g40
(g69
S'\x01\x00\x00\x00'
p3710
tp3711
Rp3712
sg39
g49
sg25
I155
sg14
I302
sg17
I72
sg37
g38
sg15
F1609.658596999012
sg31
g40
(g44
S'\xa1\xfaq\x1b\x82`\xbc?'
p3713
tp3714
Rp3715
sg50
g55
sg23
I153
sg26
I18
sg33
g40
(g69
S'\xff\xff\xff\xff'
p3716
tp3717
Rp3718
sg18
F1.7166867274791002
sg16
F1.199586147093214
sg29
I0
sg28
S'a'
p3719
sg22
F2.5507055994239636
sg19
I103
sg24
F2.5840011819964275
sg21
I105
sa(dp3720
g30
I1
sg20
F1.849914520047605
sg27
F3.618030759622343
sg32
g40
(g69
S'\x01\x00\x00\x00'
p3721
tp3722
Rp3723
sg39
g49
sg25
I201
sg14
I303
sg17
I68
sg37
g38
sg15
F1612.7276911531226
sg31
g40
(g44
S'\xf3\xeeZz\xa6\xac\xb9?'
p3724
tp3725
Rp3726
sg50
g55
sg23
I199
sg26
I58
sg33
g40
(g69
S'\x01\x00\x00\x00'
p3727
tp3728
Rp3729
sg18
F1.8167472582426853
sg16
F1.1328417302574962
sg29
I0
sg28
S'l'
p3730
sg22
F3.3178114043548703
sg19
I109
sg24
F3.3511828795308247
sg21
I111
sa(dp3731
g30
I1
sg20
F1.9666054270928726
sg27
F3.4678561883047223
sg32
g40
(g69
S'\xff\xff\xff\xff'
p3732
tp3733
Rp3734
sg39
g49
sg25
I186
sg14
I304
sg17
I70
sg37
g38
sg15
F1616.3639343012474
sg31
g40
(g44
S'\xcat\xe6J\x94\x06\xbb?'
p3735
tp3736
Rp3737
sg50
g55
sg23
I184
sg26
I36
sg33
g40
(g69
S'\xff\xff\xff\xff'
p3738
tp3739
Rp3740
sg18
F1.9333113110624254
sg16
F1.1660416221711785
sg29
I0
sg28
S'a'
p3741
sg22
F3.067540005838964
sg19
I116
sg24
F3.1010035053477623
sg21
I118
sa(dp3742
g30
I1
sg20
F1.816605738713406
sg27
F2.884215037804097
sg32
g40
(g69
S'\x01\x00\x00\x00'
p3743
tp3744
Rp3745
sg39
g49
sg25
I148
sg14
I305
sg17
I71
sg37
g38
sg15
F1619.8499126868555
sg31
g40
(g44
S'\xcat\xe6J\x94\x06\xbb?'
p3746
tp3747
Rp3748
sg50
g55
sg23
I146
sg26
I7
sg33
g40
(g69
S'\x01\x00\x00\x00'
p3749
tp3750
Rp3751
sg18
F1.7832793591660447
sg16
F1.1828743786900304
sg29
I0
sg28
S'l'
p3752
sg22
F2.4340117593528703
sg19
I107
sg24
F2.4672241166699678
sg21
I109
sa(dp3753
g30
I1
sg20
F1.6498026242479682
sg27
F3.618153214280028
sg32
g40
(g69
S'\xff\xff\xff\xff'
p3754
tp3755
Rp3756
sg39
g49
sg25
I193
sg14
I306
sg17
I61
sg37
g38
sg15
F1622.7521853949875
sg31
g40
(g44
S'\xcat\xe6J\x94\x06\xbb?'
p3757
tp3758
Rp3759
sg50
g55
sg23
I191
sg26
I62
sg33
g40
(g69
S'\x01\x00\x00\x00'
p3760
tp3761
Rp3762
sg18
F1.6165510374121368
sg16
F1.0160892291460186
sg29
I0
sg28
S'l'
p3763
sg22
F3.1844483250170015
sg19
I97
sg24
F3.21772007655818
sg21
I99
sa(dp3764
g30
I1
sg20
F1.866676150180865
sg27
F3.267818718624767
sg32
g40
(g69
S'\xff\xff\xff\xff'
p3765
tp3766
Rp3767
sg39
g49
sg25
I147
sg14
I307
sg17
I63
sg37
g38
sg15
F1626.3882939895848
sg31
g40
(g44
S'\xcat\xe6J\x94\x06\xbb?'
p3768
tp3769
Rp3770
sg50
g55
sg23
I145
sg26
I3
sg33
g40
(g69
S'\xff\xff\xff\xff'
p3771
tp3772
Rp3773
sg18
F1.8334865239448845
sg16
F1.0494867351371795
sg29
I0
sg28
S'a'
p3774
sg22
F2.417135007039178
sg19
I110
sg24
F2.450529213354457
sg21
I112
sa(dp3775
g30
I0
sg20
F1.6497340642963536
sg27
F4.351984701235779
sg32
g40
(g69
S'\xff\xff\xff\xff'
p3776
tp3777
Rp3778
sg39
g49
sg25
I201
sg14
I308
sg17
I62
sg37
g38
sg15
F1629.674298332713
sg31
g40
(g44
S'\xcat\xe6J\x94\x06\xbb?'
p3779
tp3780
Rp3781
sg50
g55
sg23
I199
sg26
I70
sg33
g40
(g69
S'\xff\xff\xff\xff'
p3782
tp3783
Rp3784
sg18
F1.616401085339021
sg16
F1.0327031071064994
sg29
I0
sg28
g118
sg22
F3.3177897731075063
sg19
I97
sg24
F3.3511443832539953
sg21
I99
sa(dp3785
g30
I0
sg20
F1.6500548662734218
sg27
F3.8184370598755777
sg32
g40
(g69
S'\xff\xff\xff\xff'
p3786
tp3787
Rp3788
sg39
g49
sg25
I169
sg14
I309
sg17
I72
sg37
g38
sg15
F1697.8438592445455
sg31
g40
(g44
S'\xf3\xeeZz\xa6\xac\xb9?'
p3789
tp3790
Rp3791
sg50
g55
sg23
I167
sg26
I38
sg33
g40
(g69
S'\xff\xff\xff\xff'
p3792
tp3793
Rp3794
sg18
F1.616814644949045
sg16
F1.1998178577632643
sg29
I0
sg28
g118
sg22
F2.7843656864133663
sg19
I97
sg24
F2.817657236009836
sg21
I99
sa(dp3795
g30
I1
sg20
F1.9334990260540508
sg27
F4.118727174936794
sg32
g40
(g69
S'\xff\xff\xff\xff'
p3796
tp3797
Rp3798
sg39
g49
sg25
I227
sg14
I310
sg17
I69
sg37
g38
sg15
F1701.66370270052
sg31
g40
(g44
S'\xcat\xe6J\x94\x06\xbb?'
p3799
tp3800
Rp3801
sg50
g55
sg23
I225
sg26
I79
sg33
g40
(g69
S'\x01\x00\x00\x00'
p3802
tp3803
Rp3804
sg18
F1.9002822691109031
sg16
F1.149636357149575
sg29
I0
sg28
S'l'
p3805
sg22
F3.751637648441829
sg19
I114
sg24
F3.785109947086312
sg21
I116
sa(dp3806
g30
I1
sg20
F1.8166431350982748
sg27
F3.267860147927422
sg32
g40
(g69
S'\x01\x00\x00\x00'
p3807
tp3808
Rp3809
sg39
g49
sg25
I175
sg14
I311
sg17
I72
sg37
g38
sg15
F1705.8004131196649
sg31
g40
(g44
S'\xa1\xfaq\x1b\x82`\xbc?'
p3810
tp3811
Rp3812
sg50
g55
sg23
I173
sg26
I34
sg33
g40
(g69
S'\xff\xff\xff\xff'
p3813
tp3814
Rp3815
sg18
F1.7833211550605483
sg16
F1.199580647633411
sg29
I0
sg28
S'a'
p3816
sg22
F2.884156010230072
sg19
I107
sg24
F2.9175355512998067
sg21
I109
sa(dp3817
g30
I0
sg20
F1.5163390880916268
sg27
F4.301990915671922
sg32
g40
(g69
S'\x01\x00\x00\x00'
p3818
tp3819
Rp3820
sg39
g49
sg25
I198
sg14
I312
sg17
I62
sg37
g38
sg15
F1709.0863217721344
sg31
g40
(g44
S'\xa1\xfaq\x1b\x82`\xbc?'
p3821
tp3822
Rp3823
sg50
g55
sg23
I196
sg26
I75
sg33
g40
(g69
S'\xff\xff\xff\xff'
p3824
tp3825
Rp3826
sg18
F1.4830266405479051
sg16
F1.0326767096994445
sg29
I1
sg28
g118
sg22
F3.2678396166302264
sg19
I89
sg24
F3.3012671862961724
sg21
I91
sa(dp3827
g30
I1
sg20
F1.6665407900582068
sg27
F3.451392995659262
sg32
g40
(g69
S'\x01\x00\x00\x00'
p3828
tp3829
Rp3830
sg39
g49
sg25
I184
sg14
I313
sg17
I62
sg37
g38
sg15
F1713.389624493022
sg31
g40
(g44
S'x\x80\xfd\xebo\xba\xbd?'
p3831
tp3832
Rp3833
sg50
g55
sg23
I182
sg26
I52
sg33
g40
(g69
S'\x01\x00\x00\x00'
p3834
tp3835
Rp3836
sg18
F1.6332921362482011
sg16
F1.0328193290624768
sg29
I0
sg28
S'l'
p3837
sg22
F3.0343998747412115
sg19
I98
sg24
F3.0677878482965752
sg21
I100
sa(dp3838
g30
I1
sg20
F1.6998143747914582
sg27
F3.834843424789142
sg32
g40
(g69
S'\x01\x00\x00\x00'
p3839
tp3840
Rp3841
sg39
g49
sg25
I213
sg14
I314
sg17
I67
sg37
g38
sg15
F1716.8591118220938
sg31
g40
(g44
S'\xcat\xe6J\x94\x06\xbb?'
p3842
tp3843
Rp3844
sg50
g55
sg23
I211
sg26
I79
sg33
g40
(g69
S'\xff\xff\xff\xff'
p3845
tp3846
Rp3847
sg18
F1.666569387249183
sg16
F1.116133994772099
sg29
I0
sg28
S'a'
p3848
sg22
F3.5179570300970227
sg19
I100
sg24
F3.551374700793531
sg21
I102
sa(dp3849
g30
I1
sg20
F1.9666816862882115
sg27
F4.302063875133172
sg32
g40
(g69
S'\x01\x00\x00\x00'
p3850
tp3851
Rp3852
sg39
g49
sg25
I226
sg14
I315
sg17
I66
sg37
g38
sg15
F1720.7120961423498
sg31
g40
(g44
S'\xcat\xe6J\x94\x06\xbb?'
p3853
tp3854
Rp3855
sg50
g55
sg23
I224
sg26
I76
sg33
g40
(g69
S'\xff\xff\xff\xff'
p3856
tp3857
Rp3858
sg18
F1.9333754714461975
sg16
F1.099462922429666
sg29
I0
sg28
S'a'
p3859
sg22
F3.734863552788738
sg19
I116
sg24
F3.76823062839685
sg21
I118
sa(dp3860
g30
I0
sg20
F1.5997619099216536
sg27
F4.251979165128432
sg32
g40
(g69
S'\x01\x00\x00\x00'
p3861
tp3862
Rp3863
sg39
g49
sg25
I195
sg14
I316
sg17
I65
sg37
g38
sg15
F1725.0321377622895
sg31
g40
(g44
S'\xa1\xfaq\x1b\x82`\xbc?'
p3864
tp3865
Rp3866
sg50
g55
sg23
I193
sg26
I67
sg33
g40
(g69
S'\xff\xff\xff\xff'
p3867
tp3868
Rp3869
sg18
F1.566515089245513
sg16
F1.0828083484666422
sg29
I0
sg28
g118
sg22
F3.217795602569822
sg19
I94
sg24
F3.251098151144106
sg21
I96
sa(dp3870
g30
I1
sg20
F1.9000204946496524
sg27
F3.551453526422847
sg32
g40
(g69
S'\xff\xff\xff\xff'
p3871
tp3872
Rp3873
sg39
g49
sg25
I190
sg14
I317
sg17
I65
sg37
g38
sg15
F1729.2854096678784
sg31
g40
(g44
S'\xa1\xfaq\x1b\x82`\xbc?'
p3874
tp3875
Rp3876
sg50
g55
sg23
I188
sg26
I44
sg33
g40
(g69
S'\xff\xff\xff\xff'
p3877
tp3878
Rp3879
sg18
F1.866725645319093
sg16
F1.0828032156568952
sg29
I0
sg28
S'a'
p3880
sg22
F3.134384512901306
sg19
I112
sg24
F3.1677669869968668
sg21
I114
sa(dp3881
g30
I1
sg20
F1.8499717144295573
sg27
F3.2177285091020167
sg32
g40
(g69
S'\x01\x00\x00\x00'
p3882
tp3883
Rp3884
sg39
g49
sg25
I152
sg14
I318
sg17
I63
sg37
g38
sg15
F1732.8549017997575
sg31
g40
(g44
S'\xcat\xe6J\x94\x06\xbb?'
p3885
tp3886
Rp3887
sg50
g55
sg23
I150
sg26
I9
sg33
g40
(g69
S'\xff\xff\xff\xff'
p3888
tp3889
Rp3890
sg18
F1.8167142614838667
sg16
F1.0493642804212868
sg29
I0
sg28
S'a'
p3891
sg22
F2.500510166864842
sg19
I109
sg24
F2.5339846652932465
sg21
I111
sa(dp3892
g30
I1
sg20
F1.6666210822295398
sg27
F3.718297703540884
sg32
g40
(g69
S'\x01\x00\x00\x00'
p3893
tp3894
Rp3895
sg39
g49
sg25
I202
sg14
I319
sg17
I61
sg37
g38
sg15
F1736.0905955882045
sg31
g40
(g44
S'\xf3\xeeZz\xa6\xac\xb9?'
p3896
tp3897
Rp3898
sg50
g55
sg23
I200
sg26
I70
sg33
g40
(g69
S'\xff\xff\xff\xff'
p3899
tp3900
Rp3901
sg18
F1.6333658290677704
sg16
F1.016194818832446
sg29
I0
sg28
S'a'
p3902
sg22
F3.334676057798788
sg19
I98
sg24
F3.368021868809592
sg21
I100
sa(dp3903
g30
I0
sg20
F1.9833919881493784
sg27
F4.702275934454519
sg32
g40
(g69
S'\x01\x00\x00\x00'
p3904
tp3905
Rp3906
sg39
g49
sg25
I222
sg14
I320
sg17
I69
sg37
g38
sg15
F1739.8270547185675
sg31
g40
(g44
S'\xa1\xfaq\x1b\x82`\xbc?'
p3907
tp3908
Rp3909
sg50
g55
sg23
I220
sg26
I71
sg33
g40
(g69
S'\x01\x00\x00\x00'
p3910
tp3911
Rp3912
sg18
F1.9500769741716795
sg16
F1.1494281108025461
sg29
I0
sg28
g118
sg22
F3.668181096552871
sg19
I117
sg24
F3.7015122423763387
sg21
I119
sa(dp3913
g30
I1
sg20
F1.6832239612122066
sg27
F2.9010078315623105
sg32
g40
(g69
S'\xff\xff\xff\xff'
p3914
tp3915
Rp3916
sg39
g49
sg25
I153
sg14
I321
sg17
I72
sg37
g38
sg15
F1744.5306233934825
sg31
g40
(g44
S'\xcat\xe6J\x94\x06\xbb?'
p3917
tp3918
Rp3919
sg50
g55
sg23
I151
sg26
I20
sg33
g40
(g69
S'\x01\x00\x00\x00'
p3920
tp3921
Rp3922
sg18
F1.649936077883467
sg16
F1.1995824807672761
sg29
I0
sg28
S'l'
p3923
sg22
F2.517287928785663
sg19
I99
sg24
F2.550623840710614
sg21
I101
sa(dp3924
g30
I0
sg20
F2.0334037386928685
sg27
F4.218527031189296
sg32
g40
(g69
S'\x01\x00\x00\x00'
p3925
tp3926
Rp3927
sg39
g49
sg25
I193
sg14
I322
sg17
I72
sg37
g38
sg15
F1747.4496496659121
sg31
g40
(g44
S'\xf3\xeeZz\xa6\xac\xb9?'
p3928
tp3929
Rp3930
sg50
g55
sg23
I191
sg26
I39
sg33
g40
(g69
S'\x01\x00\x00\x00'
p3931
tp3932
Rp3933
sg18
F2.000185515265912
sg16
F1.1994871567585506
sg29
I0
sg28
g118
sg22
F3.1845062527572736
sg19
I120
sg24
F3.217749407107476
sg21
I122
sa(dp3934
g30
I0
sg20
F1.7666680476395413
sg27
F3.6516130475210957
sg32
g40
(g69
S'\xff\xff\xff\xff'
p3935
tp3936
Rp3937
sg39
g49
sg25
I198
sg14
I323
sg17
I65
sg37
g38
sg15
F1751.6694811696652
sg31
g40
(g44
S'\xcat\xe6J\x94\x06\xbb?'
p3938
tp3939
Rp3940
sg50
g55
sg23
I196
sg26
I60
sg33
g40
(g69
S'\x01\x00\x00\x00'
p3941
tp3942
Rp3943
sg18
F1.7333984958240762
sg16
F1.0828930402058177
sg29
I0
sg28
S'a'
p3944
sg22
F3.267910009715706
sg19
I104
sg24
F3.3012613201863132
sg21
I106
sa(dp3945
g30
I1
sg20
F1.8166226037428714
sg27
F3.1011274266056716
sg32
g40
(g69
S'\x01\x00\x00\x00'
p3946
tp3947
Rp3948
sg39
g49
sg25
I146
sg14
I324
sg17
I65
sg37
g38
sg15
F1755.3391141244792
sg31
g40
(g44
S'\xf3\xeeZz\xa6\xac\xb9?'
p3949
tp3950
Rp3951
sg50
g55
sg23
I144
sg26
I5
sg33
g40
(g69
S'\xff\xff\xff\xff'
p3952
tp3953
Rp3954
sg18
F1.7833178553846665
sg16
F1.082838412199635
sg29
I0
sg28
S'a'
p3955
sg22
F2.4005537592456676
sg19
I107
sg24
F2.4339208348537795
sg21
I109
sa(dp3956
g30
I1
sg20
F1.8668444337672554
sg27
F3.735000672750175
sg32
g40
(g69
S'\xff\xff\xff\xff'
p3957
tp3958
Rp3959
sg39
g49
sg25
I201
sg14
I325
sg17
I69
sg37
g38
sg15
F1758.4580623778747
sg31
g40
(g44
S'\xcat\xe6J\x94\x06\xbb?'
p3960
tp3961
Rp3962
sg50
g55
sg23
I199
sg26
I57
sg33
g40
(g69
S'\xff\xff\xff\xff'
p3963
tp3964
Rp3965
sg18
F1.8336247437400743
sg16
F1.149761378299445
sg29
I0
sg28
S'a'
p3966
sg22
F3.318077944975812
sg19
I110
sg24
F3.3513625286286697
sg21
I112
sa(dp3967
g30
I0
sg20
F1.7665085632470436
sg27
F4.23524136596825
sg32
g40
(g69
S'\xff\xff\xff\xff'
p3968
tp3969
Rp3970
sg39
g49
sg25
I201
sg14
I326
sg17
I68
sg37
g38
sg15
F1762.2111826815526
sg31
g40
(g44
S'\xcat\xe6J\x94\x06\xbb?'
p3971
tp3972
Rp3973
sg50
g55
sg23
I199
sg26
I63
sg33
g40
(g69
S'\xff\xff\xff\xff'
p3974
tp3975
Rp3976
sg18
F1.7332067479146644
sg16
F1.1327302744612098
sg29
I0
sg28
S'l'
p3977
sg22
F3.3177787741879
sg19
I104
sg24
F3.351163448067382
sg21
I106
sa(dp3978
g30
I0
sg20
F1.6497593618114479
sg27
F3.9515365316183306
sg32
g40
(g69
S'\xff\xff\xff\xff'
p3979
tp3980
Rp3981
sg39
g49
sg25
I177
sg14
I327
sg17
I66
sg37
g38
sg15
F1766.4646085720742
sg31
g40
(g44
S'\xf3\xeeZz\xa6\xac\xb9?'
p3982
tp3983
Rp3984
sg50
g55
sg23
I175
sg26
I46
sg33
g40
(g69
S'\xff\xff\xff\xff'
p3985
tp3986
Rp3987
sg18
F1.6163853202597238
sg16
F1.0994475239422172
sg29
I0
sg28
g118
sg22
F2.917471757507883
sg19
I97
sg24
F2.950872563116718
sg21
I99
sa(dp3988
g30
I0
sg20
F1.783370650256984
sg27
F3.584805936785415
sg32
g40
(g69
S'\xff\xff\xff\xff'
p3989
tp3990
Rp3991
sg39
g49
sg25
I155
sg14
I328
sg17
I70
sg37
g38
sg15
F1770.417441877129
sg31
g40
(g44
S'\x00\x00\x00\x00\x00\x00\x00\x00'
p3992
tp3993
Rp3994
sg50
g55
sg23
I153
sg26
F16.0
sg33
g40
(g69
S'\xff\xff\xff\xff'
p3995
tp3996
Rp3997
sg18
F1.750187256722711
sg16
F1.1663807557197288
sg29
I1
sg28
g118
sg22
F2.5506630702875555
sg19
I105
sg24
F2.5840378451393917
sg21
I107
sa(dp3998
g30
I0
sg20
F2.0501778342877515
sg27
F3.9017638244549744
sg32
g40
(g69
S'\x01\x00\x00\x00'
p3999
tp4000
Rp4001
sg39
g49
sg25
I174
sg14
I329
sg17
I72
sg37
g38
sg15
F1774.0035860165954
sg31
g40
(g44
S'\xcat\xe6J\x94\x06\xbb?'
p4002
tp4003
Rp4004
sg50
g55
sg23
I172
sg26
I19
sg33
g40
(g69
S'\x01\x00\x00\x00'
p4005
tp4006
Rp4007
sg18
F2.016872352687642
sg16
F1.1995667156297714
sg29
I0
sg28
g118
sg22
F2.867556430865079
sg19
I121
sg24
F2.900900042091962
sg21
I123
sa(dp4008
g30
I0
sg20
F1.7165540070855059
sg27
F3.901661534444429
sg32
g40
(g69
S'\x01\x00\x00\x00'
p4009
tp4010
Rp4011
sg39
g49
sg25
I213
sg14
I330
sg17
I69
sg37
g38
sg15
F1777.906723240274
sg31
g40
(g44
S'\xcat\xe6J\x94\x06\xbb?'
p4012
tp4013
Rp4014
sg50
g55
sg23
I211
sg26
I78
sg33
g40
(g69
S'\xff\xff\xff\xff'
p4015
tp4016
Rp4017
sg18
F1.683280055760406
sg16
F1.1495751297916286
sg29
I1
sg28
S'a'
p4018
sg22
F3.518066286109388
sg19
I101
sg24
F3.5514007315505296
sg21
I103
sa(dp4019
g30
I1
sg20
F1.699794576736167
sg27
F4.352003399399109
sg32
g40
(g69
S'\x01\x00\x00\x00'
p4020
tp4021
Rp4022
sg39
g49
sg25
I211
sg14
I331
sg17
I71
sg37
g38
sg15
F1781.8265564672183
sg31
g40
(g44
S'\xa1\xfaq\x1b\x82`\xbc?'
p4023
tp4024
Rp4025
sg50
g55
sg23
I209
sg26
I77
sg33
g40
(g69
S'\x01\x00\x00\x00'
p4026
tp4027
Rp4028
sg18
F1.6665767199010588
sg16
F1.1827775881392881
sg29
I0
sg28
S'l'
p4029
sg22
F3.484658514498733
sg19
I100
sg24
F3.518084251030814
sg21
I102
sa(dp4030
g30
I1
sg20
F1.5495063498383388
sg27
F3.401089406979736
sg32
g40
(g69
S'\x01\x00\x00\x00'
p4031
tp4032
Rp4033
sg39
g49
sg25
I152
sg14
I332
sg17
I66
sg37
g38
sg15
F1786.1967960861512
sg31
g40
(g44
S'\xcat\xe6J\x94\x06\xbb?'
p4034
tp4035
Rp4036
sg50
g55
sg23
I150
sg26
I27
sg33
g40
(g69
S'\x01\x00\x00\x00'
p4037
tp4038
Rp4039
sg18
F1.5162397311069071
sg16
F1.099288406141568
sg29
I0
sg28
S'l'
p4040
sg22
F2.5004020107444376
sg19
I91
sg24
F2.533689894073177
sg21
I93
sa(dp4041
g30
I0
sg20
F1.4996430848841555
sg27
F3.8014939475106075
sg32
g40
(g69
S'\x01\x00\x00\x00'
p4042
tp4043
Rp4044
sg39
g49
sg25
I168
sg14
I333
sg17
I61
sg37
g38
sg15
F1789.6159772601095
sg31
g40
(g44
S'\x00\x00\x00\x00\x00\x00\x00\x00'
p4045
tp4046
Rp4047
sg50
g55
sg23
I166
sg26
F46.0
sg33
g40
(g69
S'\x01\x00\x00\x00'
p4048
tp4049
Rp4050
sg18
F1.466355201555416
sg16
F1.01598840567749
sg29
I1
sg28
g118
sg22
F2.7673133179778233
sg19
I88
sg24
F2.8007837834884413
sg21
I90
sa(dp4051
g30
I1
sg20
F1.7166856275871396
sg27
F3.0844669865327887
sg32
g40
(g69
S'\x01\x00\x00\x00'
p4052
tp4053
Rp4054
sg39
g49
sg25
I161
sg14
I334
sg17
I72
sg37
g38
sg15
F1793.4187602816964
sg31
g40
(g44
S'x\x80\xfd\xebo\xba\xbd?'
p4055
tp4056
Rp4057
sg50
g55
sg23
I159
sg26
I26
sg33
g40
(g69
S'\xff\xff\xff\xff'
p4058
tp4059
Rp4060
sg18
F1.6834351405850612
sg16
F1.1997280332143418
sg29
I0
sg28
S'a'
p4061
sg22
F2.650869886740111
sg19
I101
sg24
F2.684155203634873
sg21
I103
sa(dp4062
g30
I1
sg20
F1.8499434838886373
sg27
F3.6180168276187032
sg32
g40
(g69
S'\x01\x00\x00\x00'
p4063
tp4064
Rp4065
sg39
g49
sg25
I198
sg14
I335
sg17
I67
sg37
g38
sg15
F1796.5213894283515
sg31
g40
(g44
S'\xf3\xeeZz\xa6\xac\xb9?'
p4066
tp4067
Rp4068
sg50
g55
sg23
I196
sg26
I55
sg33
g40
(g69
S'\xff\xff\xff\xff'
p4069
tp4070
Rp4071
sg18
F1.8166797981830314
sg16
F1.116072034172248
sg29
I0
sg28
S'a'
p4072
sg22
F3.2677578579168767
sg19
I109
sg24
F3.301129333092831
sg21
I111
sa(dp4073
g30
I1
sg20
F1.6163941193954088
sg27
F3.401180331420619
sg32
g40
(g69
S'\x01\x00\x00\x00'
p4074
tp4075
Rp4076
sg39
g49
sg25
I179
sg14
I336
sg17
I69
sg37
g38
sg15
F1800.157558517065
sg31
g40
(g44
S'\xcat\xe6J\x94\x06\xbb?'
p4077
tp4078
Rp4079
sg50
g55
sg23
I177
sg26
I50
sg33
g40
(g69
S'\xff\xff\xff\xff'
p4080
tp4081
Rp4082
sg18
F1.583162697206717
sg16
F1.1494314105366357
sg29
I0
sg28
S'a'
p4083
sg22
F2.9508450658177026
sg19
I95
sg24
F2.984301965974737
sg21
I97
sa(dp4084
g30
I1
sg20
F1.5497769234934822
sg27
F3.651563918974716
sg32
g40
(g69
S'\xff\xff\xff\xff'
p4085
tp4086
Rp4087
sg39
g49
sg25
I159
sg14
I337
sg17
I66
sg37
g38
sg15
F1803.576805684541
sg31
g40
(g44
S'\x00\x00\x00\x00\x00\x00\x00\x00'
p4088
tp4089
Rp4090
sg50
g55
sg23
I157
sg26
F34.0
sg33
g40
(g69
S'\xff\xff\xff\xff'
p4091
tp4092
Rp4093
sg18
F1.516465942375362
sg16
F1.099480887351092
sg29
I0
sg28
g118
sg22
F2.6173308612778783
sg19
I91
sg24
F2.6507254341850057
sg21
I93
sa(dp4094
g30
I0
sg20
F1.7999676631297916
sg27
F3.134399911388755
sg32
g40
(g69
S'\x01\x00\x00\x00'
p4095
tp4096
Rp4097
sg39
g49
sg25
I168
sg14
I338
sg17
I71
sg37
g38
sg15
F1807.2296531781903
sg31
g40
(g44
S'\xf3\xeeZz\xa6\xac\xb9?'
p4098
tp4099
Rp4100
sg50
g55
sg23
I166
sg26
I28
sg33
g40
(g69
S'\xff\xff\xff\xff'
p4101
tp4102
Rp4103
sg18
F1.7667289083474316
sg16
F1.1829411055077799
sg29
I1
sg28
S'a'
p4104
sg22
F2.7675604271353222
sg19
I106
sg24
F2.8008068812196143
sg21
I108
sa(dp4105
g30
I1
sg20
F1.8999387359363027
sg27
F3.617969898856245
sg32
g40
(g69
S'\xff\xff\xff\xff'
p4106
tp4107
Rp4108
sg39
g49
sg25
I198
sg14
I339
sg17
I62
sg37
g38
sg15
F1810.382257778896
sg31
g40
(g44
S'\xa1\xfaq\x1b\x82`\xbc?'
p4109
tp4110
Rp4111
sg50
g55
sg23
I196
sg26
I52
sg33
g40
(g69
S'\x01\x00\x00\x00'
p4112
tp4113
Rp4114
sg18
F1.8667285783449188
sg16
F1.0327060401323251
sg29
I0
sg28
S'l'
p4115
sg22
F3.26770616293652
sg19
I112
sg24
F3.301075438328553
sg21
I114
sa(dp4116
g30
I1
sg20
F1.8501553964451887
sg27
F2.934497728536371
sg32
g40
(g69
S'\x01\x00\x00\x00'
p4117
tp4118
Rp4119
sg39
g49
sg25
I151
sg14
I340
sg17
I64
sg37
g38
sg15
F1814.018173159042
sg31
g40
(g44
S'\xcat\xe6J\x94\x06\xbb?'
p4120
tp4121
Rp4122
sg50
g55
sg23
I149
sg26
I8
sg33
g40
(g69
S'\xff\xff\xff\xff'
p4123
tp4124
Rp4125
sg18
F1.816820951004047
sg16
F1.0662380995927379
sg29
I0
sg28
S'a'
p4126
sg22
F2.484013244160451
sg19
I109
sg24
F2.5174023176077753
sg21
I111
sa(dp4127
g30
I1
sg20
F1.7165906702284701
sg27
F3.6849067969596945
sg32
g40
(g69
S'\xff\xff\xff\xff'
p4128
tp4129
Rp4130
sg39
g49
sg25
I161
sg14
I341
sg17
I66
sg37
g38
sg15
F1816.9706167354598
sg31
g40
(g44
S'\x00\x00\x00\x00\x00\x00\x00\x00'
p4131
tp4132
Rp4133
sg50
g55
sg23
I159
sg26
F26.0
sg33
g40
(g69
S'\xff\xff\xff\xff'
p4134
tp4135
Rp4136
sg18
F1.6833354170667008
sg16
F1.0994654888636433
sg29
I0
sg28
g118
sg22
F2.650710035697557
sg19
I101
sg24
F2.684106075146701
sg21
I103
sa(dp4137
g30
I0
sg20
F1.7332038148888387
sg27
F3.301138498878572
sg32
g40
(g69
S'\xff\xff\xff\xff'
p4138
tp4139
Rp4140
sg39
g49
sg25
I138
sg14
I342
sg17
I69
sg37
g38
sg15
F1820.6568236054736
sg31
g40
(g44
S'\xf3\xeeZz\xa6\xac\xb9?'
p4141
tp4142
Rp4143
sg50
g55
sg23
I136
sg26
I2
sg33
g40
(g69
S'\x01\x00\x00\x00'
p4144
tp4145
Rp4146
sg18
F1.7000215212465264
sg16
F1.149528201087378
sg29
I1
sg28
g118
sg22
F2.2670744579518214
sg19
I102
sg24
F2.300499461241998
sg21
I104
sa(dp4147
g30
I1
sg20
F1.88344657944981
sg27
F2.884412285173312
sg32
g40
(g69
S'\x01\x00\x00\x00'
p4148
tp4149
Rp4150
sg39
g49
sg25
I152
sg14
I343
sg17
I63
sg37
g38
sg15
F1823.9593226714642
sg31
g40
(g44
S'\xf3\xeeZz\xa6\xac\xb9?'
p4151
tp4152
Rp4153
sg50
g55
sg23
I150
sg26
I7
sg33
g40
(g69
S'\xff\xff\xff\xff'
p4154
tp4155
Rp4156
sg18
F1.850152463419363
sg16
F1.0495783928199671
sg29
I0
sg28
S'a'
p4157
sg22
F2.5007132803439163
sg19
I111
sg24
F2.5340257279458456
sg21
I113
sa(dp4158
g30
I0
sg20
F1.9666439233114943
sg27
F3.3844865279388614
sg32
g40
(g69
S'\xff\xff\xff\xff'
p4159
tp4160
Rp4161
sg39
g49
sg25
I193
sg14
I344
sg17
I69
sg37
g38
sg15
F1826.8617830945877
sg31
g40
(g44
S'x\x80\xfd\xebo\xba\xbd?'
p4162
tp4163
Rp4164
sg50
g55
sg23
I191
sg26
I43
sg33
g40
(g69
S'\xff\xff\xff\xff'
p4165
tp4166
Rp4167
sg18
F1.9333490740391426
sg16
F1.1494090460473672
sg29
I0
sg28
S'l'
p4168
sg22
F3.1844006630126387
sg19
I116
sg24
F3.217680847097654
sg21
I118
sa(dp4169
g30
I1
sg20
F1.5996856507263146
sg27
F2.650556417356711
sg32
g40
(g69
S'\xff\xff\xff\xff'
p4170
tp4171
Rp4172
sg39
g49
sg25
I138
sg14
I345
sg17
I64
sg37
g38
sg15
F1830.2644189505954
sg31
g40
(g44
S'\xa1\xfaq\x1b\x82`\xbc?'
p4173
tp4174
Rp4175
sg50
g55
sg23
I136
sg26
I10
sg33
g40
(g69
S'\xff\xff\xff\xff'
p4176
tp4177
Rp4178
sg18
F1.566409866209142
sg16
F1.066005289030727
sg29
I0
sg28
S'a'
p4179
sg22
F2.26692597247893
sg19
I94
sg24
F2.3002886485191993
sg21
I96
sa(dp4180
g30
I1
sg20
F1.7665173623827286
sg27
F3.167621434549801
sg32
g40
(g69
S'\x01\x00\x00\x00'
p4181
tp4182
Rp4183
sg39
g49
sg25
I171
sg14
I346
sg17
I62
sg37
g38
sg15
F1832.9332163536455
sg31
g40
(g44
S'\xcat\xe6J\x94\x06\xbb?'
p4184
tp4185
Rp4186
sg50
g55
sg23
I169
sg26
I33
sg33
g40
(g69
S'\x01\x00\x00\x00'
p4187
tp4188
Rp4189
sg18
F1.73316641850397
sg16
F1.0326176821254194
sg29
I0
sg28
S'l'
p4190
sg22
F2.8174178260960616
sg19
I104
sg24
F2.8507115755346604
sg21
I106
sa(dp4191
g30
I1
sg20
F1.866638753854204
sg27
F2.8173624648479745
sg32
g40
(g69
S'\xff\xff\xff\xff'
p4192
tp4193
Rp4194
sg39
g49
sg25
I144
sg14
I347
sg17
I61
sg37
g38
sg15
F1836.1190721745952
sg31
g40
(g44
S'\xf3\xeeZz\xa6\xac\xb9?'
p4195
tp4196
Rp4197
sg50
g55
sg23
I142
sg26
I0
sg33
g40
(g69
S'\x01\x00\x00\x00'
p4198
tp4199
Rp4200
sg18
F1.8332570130005479
sg16
F1.0159121464239433
sg29
I0
sg28
S'l'
p4201
sg22
F2.3669692715629935
sg19
I110
sg24
F2.40040490712272
sg21
I112
sa(dp4202
g30
I1
sg20
F1.8836218290380202
sg27
F3.251413820311427
sg32
g40
(g69
S'\x01\x00\x00\x00'
p4203
tp4204
Rp4205
sg39
g49
sg25
I169
sg14
I348
sg17
I69
sg37
g38
sg15
F1838.9542704980704
sg31
g40
(g44
S'x\x80\xfd\xebo\xba\xbd?'
p4206
tp4207
Rp4208
sg50
g55
sg23
I167
sg26
I24
sg33
g40
(g69
S'\x01\x00\x00\x00'
p4209
tp4210
Rp4211
sg18
F1.850251087162178
sg16
F1.1497925419243984
sg29
I0
sg28
S'l'
p4212
sg22
F2.784309958515223
sg19
I111
sg24
F2.817744860833045
sg21
I113
sa(dp4213
g30
I1
sg20
F1.699838939064648
sg27
F3.7849280982045457
sg32
g40
(g69
S'\xff\xff\xff\xff'
p4214
tp4215
Rp4216
sg39
g49
sg25
I206
sg14
I349
sg17
I67
sg37
g38
sg15
F1842.2237335561658
sg31
g40
(g44
S'\xf3\xeeZz\xa6\xac\xb9?'
p4217
tp4218
Rp4219
sg50
g55
sg23
I204
sg26
I72
sg33
g40
(g69
S'\x01\x00\x00\x00'
p4220
tp4221
Rp4222
sg18
F1.6665360238403082
sg16
F1.1161061308230273
sg29
I0
sg28
S'l'
p4223
sg22
F3.4013629136024974
sg19
I100
sg24
F3.434603134926874
sg21
I102
sa(dp4224
g30
I0
sg20
F1.7498393240384758
sg27
F4.502055516000837
sg32
g40
(g69
S'\x01\x00\x00\x00'
p4225
tp4226
Rp4227
sg39
g49
sg25
I210
sg14
I350
sg17
I71
sg37
g38
sg15
F1846.0267475552391
sg31
g40
(g44
S'\xa1\xfaq\x1b\x82`\xbc?'
p4228
tp4229
Rp4230
sg50
g55
sg23
I208
sg26
I73
sg33
g40
(g69
S'\xff\xff\xff\xff'
p4231
tp4232
Rp4233
sg18
F1.7165987361222506
sg16
F1.1828512809588574
sg29
I1
sg28
g118
sg22
F3.4679661776171997
sg19
I103
sg24
F3.5012738590012304
sg21
I105
sa(dp4234
g30
I1
sg20
F1.6666419801767915
sg27
F3.2512257386697456
sg32
g40
(g69
S'\xff\xff\xff\xff'
p4235
tp4236
Rp4237
sg39
g49
sg25
I177
sg14
I351
sg17
I63
sg37
g38
sg15
F1850.5300954450504
sg31
g40
(g44
S'\xcat\xe6J\x94\x06\xbb?'
p4238
tp4239
Rp4240
sg50
g55
sg23
I175
sg26
I45
sg33
g40
(g69
S'\xff\xff\xff\xff'
p4241
tp4242
Rp4243
sg18
F1.6333911265828647
sg16
F1.0495380634092726
sg29
I0
sg28
S'a'
p4244
sg22
F2.9176569061237387
sg19
I98
sg24
F2.9510122495121323
sg21
I100
sa(dp4245
g30
I0
sg20
F1.6164175837184303
sg27
F3.3511370506021194
sg32
g40
(g69
S'\xff\xff\xff\xff'
p4246
tp4247
Rp4248
sg39
g49
sg25
I158
sg14
I352
sg17
I65
sg37
g38
sg15
F1853.799494709354
sg31
g40
(g44
S'\x00\x00\x00\x00\x00\x00\x00\x00'
p4249
tp4250
Rp4251
sg50
g55
sg23
I156
sg26
F29.0
sg33
g40
(g69
S'\xff\xff\xff\xff'
p4252
tp4253
Rp4254
sg18
F1.5831799288280308
sg16
F1.0827812177594751
sg29
I0
sg28
S'l'
p4255
sg22
F2.6005527326487936
sg19
I95
sg24
F2.633944005880039
sg21
I97
sasS'loops'
p4256
(lp4257
sS'savePickle'
p4258
I00
sb.