ccopy_reg
_reconstructor
p0
(cpsychopy.data.experiment
ExperimentHandler
p1
c__builtin__
object
p2
Ntp3
Rp4
(dp5
S'originPath'
p6
NsS'dataFileName'
p7
VC:\u005cUsers\u005cegnerlab\u005cDesktop\u005cTheta - jack\u005cdata/204
p8
sS'runtimeInfo'
p9
NsS'name'
p10
S''
p11
sS'dataNames'
p12
(lp13
S'Trial'
p14
aS'ButtonPressTimeinOverallExp'
p15
aS'squareStartTime'
p16
aS'squareStartFrame'
p17
aS'flash_circleStartTime'
p18
aS'flash_circleStartFrame'
p19
aS'flash_circleEndTime'
p20
aS'flash_circleEndFrame'
p21
aS'lilsquareStartTime'
p22
aS'lilsquareStartFrame'
p23
aS'lilsquareEndTime'
p24
aS'lilsquareEndFrame'
p25
aS'lilafterflash'
p26
aS'ButtonPressTime'
p27
aS'Key'
p28
aS'false_presses'
p29
aS'Acc'
p30
aS'Opacity'
p31
aS'FlashSide'
p32
aS'CorrSide'
p33
asS'autoLog'
p34
I01
sS'extraInfo'
p35
(dp36
S'date'
p37
V2018_Nov_29_1425
p38
sS'frameRate'
p39
cnumpy.core.multiarray
scalar
p40
(cnumpy
dtype
p41
(S'f8'
p42
I0
I1
tp43
Rp44
(I3
S'<'
p45
NNNI-1
I-1
I0
tp46
bS'\x04\xd6\xe3\x0c\xe5\xf9M@'
p47
tp48
Rp49
sS'participant'
p50
g0
(cfuture.types.newstr
newstr
p51
c__builtin__
unicode
p52
V204
p53
tp54
Rp55
ssS'loopsUnfinished'
p56
(lp57
sS'saveWideText'
p58
I00
sS'thisEntry'
p59
(dp60
sS'version'
p61
g11
sS'_paramNamesSoFar'
p62
(lp63
sS'entries'
p64
(lp65
(dp66
g30
I1
sg20
F1.6664868951775134
sg27
F3.1511136791668832
sg32
g40
(g41
(S'i4'
p67
I0
I1
tp68
Rp69
(I3
S'<'
p70
NNNI-1
I-1
I0
tp71
bS'\x01\x00\x00\x00'
p72
tp73
Rp74
sg39
g49
sg25
I136
sg14
I0
sg17
I68
sg37
g38
sg15
F118.5594067319762
sg31
F0.153
sg50
g55
sg23
I134
sg26
I6
sg33
g40
(g69
S'\xff\xff\xff\xff'
p75
tp76
Rp77
sg18
F1.5997897002380341
sg16
F1.1327557179611176
sg29
I0
sg28
S'a'
p78
sg22
F2.266993726254441
sg19
I96
sg24
F2.300425732275471
sg21
I98
sa(dp79
g30
I1
sg20
F1.8666012107860297
sg27
F2.9674864052794874
sg32
g40
(g69
S'\xff\xff\xff\xff'
p80
tp81
Rp82
sg39
g49
sg25
I150
sg14
I-1
sg17
I60
sg37
g38
sg15
F121.72899606090505
sg31
F0.153
sg50
g55
sg23
I148
sg26
I6
sg33
g40
(g69
S'\x01\x00\x00\x00'
p83
tp84
Rp85
sg18
F1.8333532535471022
sg16
F0.9992773697013035
sg29
I0
sg28
S'l'
p86
sg22
F2.467099242610857
sg19
I110
sg24
F2.5005246492801234
sg21
I112
sa(dp87
g30
I1
sg20
F1.7999007161706686
sg27
F3.4846205512294546
sg32
g40
(g69
S'\xff\xff\xff\xff'
p88
tp89
Rp90
sg39
g49
sg25
I177
sg14
I-2
sg17
I69
sg37
g38
sg15
F124.71462594810873
sg31
F0.153
sg50
g55
sg23
I175
sg26
I37
sg33
g40
(g69
S'\x01\x00\x00\x00'
p91
tp92
Rp93
sg18
F1.7666065635858104
sg16
F1.1494425737764686
sg29
I0
sg28
S'l'
p94
sg22
F2.9174936645431444
sg19
I106
sg24
F2.950921637704596
sg21
I108
sa(dp95
g30
I1
sg20
F1.8665524488314986
sg27
F4.0350481166969985
sg32
g40
(g69
S'\x01\x00\x00\x00'
p96
tp97
Rp98
sg39
g49
sg25
I210
sg14
I-3
sg17
I63
sg37
g38
sg15
F128.2174303107895
sg31
F0.153
sg50
g55
sg23
I208
sg26
I66
sg33
g40
(g69
S'\xff\xff\xff\xff'
p99
tp100
Rp101
sg18
F1.833235198399052
sg16
F1.049287342117168
sg29
I0
sg28
S'a'
p102
sg22
F3.4679153639590368
sg19
I110
sg24
F3.501206216868013
sg21
I112
sa(dp103
g30
I1
sg20
F1.6497655760031193
sg27
F2.6506077280500904
sg32
g40
(g69
S'\x01\x00\x00\x00'
p104
tp105
Rp106
sg39
g49
sg25
I135
sg14
I-4
sg17
I66
sg37
g38
sg15
F132.27054638334084
sg31
F0.153
sg50
g55
sg23
I133
sg26
I4
sg33
g40
(g69
S'\x01\x00\x00\x00'
p107
tp108
Rp109
sg18
F1.6165821459144354
sg16
F1.0993915387662128
sg29
I0
sg28
S'l'
p110
sg22
F2.2169331586919725
sg19
I97
sg24
F2.2503640649374574
sg21
I99
sa(dp111
g30
I1
sg20
F1.8247550169471651
sg27
F3.159179933834821
sg32
g40
(g69
S'\x01\x00\x00\x00'
p112
tp113
Rp114
sg39
g49
sg25
I150
sg14
I-5
sg17
I63
sg37
g38
sg15
F135.1312917593168
sg31
F0.135
sg50
g55
sg23
I148
sg26
I8
sg33
g40
(g69
S'\x01\x00\x00\x00'
p115
tp116
Rp117
sg18
F1.791504493332468
sg16
F1.0409230161458254
sg29
I0
sg28
S'l'
p118
sg22
F2.4586062291637063
sg19
I108
sg24
F2.491985073662363
sg21
I110
sa(dp119
g30
I1
sg20
F1.9163725061807781
sg27
F3.6344114248640835
sg32
g40
(g69
S'\xff\xff\xff\xff'
p120
tp121
Rp122
sg39
g49
sg25
I158
sg14
I-6
sg17
I68
sg37
g38
sg15
F138.30889234831557
sg31
g40
(g44
S'\x00\x00\x00\x00\x00\x00\x00\x00'
p123
tp124
Rp125
sg50
g55
sg23
I156
sg26
F11.0
sg33
g40
(g69
S'\xff\xff\xff\xff'
p126
tp127
Rp128
sg18
F1.8831274821422994
sg16
F1.132544171763584
sg29
I0
sg28
S'nope'
p129
sg22
F2.6002842858433723
sg19
I113
sg24
F2.633644798770547
sg21
I115
sa(dp130
g30
I1
sg20
F2.0500825654016808
sg27
F4.018450352246873
sg32
g40
(g69
S'\x01\x00\x00\x00'
p131
tp132
Rp133
sg39
g49
sg25
I206
sg14
I-7
sg17
I71
sg37
g38
sg15
F141.94483555853367
sg31
g40
(g44
S'\x1e`g\x00G\xfb\xbc?'
p134
tp135
Rp136
sg50
g55
sg23
I204
sg26
I51
sg33
g40
(g69
S'\xff\xff\xff\xff'
p137
tp138
Rp139
sg18
F2.01676384836901
sg16
F1.1828324171947315
sg29
I0
sg28
S'a'
p140
sg22
F3.401188838528469
sg19
I121
sg24
F3.4345200209645554
sg21
I123
sa(dp141
g30
I1
sg20
F1.883068454451859
sg27
F3.6679724850691855
sg32
g40
(g69
S'\x01\x00\x00\x00'
p142
tp143
Rp144
sg39
g49
sg25
I173
sg14
I-8
sg17
I66
sg37
g38
sg15
F145.98155588051304
sg31
g40
(g44
S'\x1d\x00W\xa7\x82\x16\xbb?'
p145
tp146
Rp147
sg50
g55
sg23
I171
sg26
I28
sg33
g40
(g69
S'\xff\xff\xff\xff'
p148
tp149
Rp150
sg18
F1.8498278299812227
sg16
F1.0991198649862781
sg29
I0
sg28
S'a'
p151
sg22
F2.850605088286102
sg19
I111
sg24
F2.883963401429355
sg21
I113
sa(dp152
g30
I1
sg20
F1.9164872617693618
sg27
F3.784720348310657
sg32
g40
(g69
S'\xff\xff\xff\xff'
p153
tp154
Rp155
sg39
g49
sg25
I199
sg14
I-9
sg17
I69
sg37
g38
sg15
F149.66771730966866
sg31
g40
(g44
S'\x9e\x04&\xc8\xc7|\xb9?'
p156
tp157
Rp158
sg50
g55
sg23
I197
sg26
I52
sg33
g40
(g69
S'\xff\xff\xff\xff'
p159
tp160
Rp161
sg18
F1.8832334384787828
sg16
F1.1493245185120031
sg29
I0
sg28
S'a'
p162
sg22
F3.2843324524583295
sg19
I113
sg24
F3.3176918654935434
sg21
I115
sa(dp163
g30
I1
sg20
F1.6496130573796108
sg27
F2.967418211977929
sg32
g40
(g69
S'\xff\xff\xff\xff'
p164
tp165
Rp166
sg39
g49
sg25
I144
sg14
I-10
sg17
I72
sg37
g38
sg15
F153.47068672976457
sg31
g40
(g44
S'\xb5?\xdc\xbd\xfe\x04\xb8?'
p167
tp168
Rp169
sg50
g55
sg23
I142
sg26
I13
sg33
g40
(g69
S'\xff\xff\xff\xff'
p170
tp171
Rp172
sg18
F1.616372799500823
sg16
F1.199394985102117
sg29
I0
sg28
S'a'
p173
sg22
F2.366955009987578
sg19
I97
sg24
F2.400311856647022
sg21
I99
sa(dp174
g30
I1
sg20
F1.7328662206418812
sg27
F4.034784142160788
sg32
g40
(g69
S'\xff\xff\xff\xff'
p175
tp176
Rp177
sg39
g49
sg25
I206
sg14
I-11
sg17
I66
sg37
g38
sg15
F156.45644677104428
sg31
g40
(g44
S'\x07\x85e\xed\x03\xb4\xb6?'
p178
tp179
Rp180
sg50
g55
sg23
I204
sg26
I70
sg33
g40
(g69
S'\x01\x00\x00\x00'
p181
tp182
Rp183
sg18
F1.6996908565051854
sg16
F1.099159094505012
sg29
I0
sg28
S'l'
p184
sg22
F3.4009519948158413
sg19
I102
sg24
F3.434315440710634
sg21
I104
sa(dp185
g30
I0
sg20
F1.9665239981841296
sg27
F3.734754738281481
sg32
g40
(g69
S'\x01\x00\x00\x00'
p186
tp187
Rp188
sg39
g49
sg25
I164
sg14
I-12
sg17
I69
sg37
g38
sg15
F160.5095283802366
sg31
g40
(g44
S'\x0b\x01{\xec\x90z\xb5?'
p189
tp190
Rp191
sg50
g55
sg23
I162
sg26
I14
sg33
g40
(g69
S'\x01\x00\x00\x00'
p192
tp193
Rp194
sg18
F1.933274574461393
sg16
F1.1493681475985795
sg29
I0
sg28
g129
sg22
F2.7005502401152626
sg19
I116
sg24
F2.7339034205069765
sg21
I118
sa(dp195
g30
I1
sg20
F1.8661594201112166
sg27
F3.684427629923448
sg32
g40
(g69
S'\x01\x00\x00\x00'
p196
tp197
Rp198
sg39
g49
sg25
I196
sg14
I-13
sg17
I62
sg37
g38
sg15
F164.24579987220932
sg31
g40
(g44
S'~e\xb8\xcei\xe8\xb8?'
p199
tp200
Rp201
sg50
g55
sg23
I194
sg26
I52
sg33
g40
(g69
S'\x01\x00\x00\x00'
p202
tp203
Rp204
sg18
F1.8329382269876078
sg16
F1.0323896732879803
sg29
I0
sg28
S'l'
p205
sg22
F3.2340482398867607
sg19
I110
sg24
F3.2674116857815534
sg21
I112
sa(dp206
g30
I1
sg20
F1.6495796939125285
sg27
F3.1842237829696387
sg32
g40
(g69
S'\xff\xff\xff\xff'
p207
tp208
Rp209
sg39
g49
sg25
I161
sg14
I-14
sg17
I68
sg37
g38
sg15
F167.94871671730652
sg31
g40
(g44
S'1+,Q\x86G\xb8?'
p210
tp211
Rp212
sg50
g55
sg23
I159
sg26
I30
sg33
g40
(g69
S'\xff\xff\xff\xff'
p213
tp214
Rp215
sg18
F1.6163577676052228
sg16
F1.132657827460207
sg29
I0
sg28
S'a'
p216
sg22
F2.650481606950052
sg19
I97
sg24
F2.683864117716439
sg21
I99
sa(dp217
g30
I1
sg20
F1.732905816868879
sg27
F2.967248094966635
sg32
g40
(g69
S'\x01\x00\x00\x00'
p218
tp219
Rp220
sg39
g49
sg25
I152
sg14
I-15
sg17
I60
sg37
g38
sg15
F171.15127316385042
sg31
g40
(g44
S'X\xbc\xb5\x01\x86\xba\xb7?'
p221
tp222
Rp223
sg50
g55
sg23
I150
sg26
I16
sg33
g40
(g69
S'\x01\x00\x00\x00'
p224
tp225
Rp226
sg18
F1.6996046981075779
sg16
F0.9991299839457497
sg29
I0
sg28
S'l'
p227
sg22
F2.5002870722673833
sg19
I102
sg24
F2.5335903906961903
sg21
I104
sa(dp228
g30
I1
sg20
F1.69964062795043
sg27
F3.6846465087728575
sg32
g40
(g69
S'\xff\xff\xff\xff'
p229
tp230
Rp231
sg39
g49
sg25
I196
sg14
I-16
sg17
I71
sg37
g38
sg15
F174.13679929438513
sg31
g40
(g44
S"S'^\n\xa41\xb7?"
p232
tp233
Rp234
sg50
g55
sg23
I194
sg26
I62
sg33
g40
(g69
S'\x01\x00\x00\x00'
p235
tp236
Rp237
sg18
F1.666334009845741
sg16
F1.182692730682902
sg29
I0
sg28
S'l'
p238
sg22
F3.234378574648872
sg19
I100
sg24
F3.26761883252766
sg21
I102
sa(dp239
g30
I1
sg20
F1.8163569609168917
sg27
F3.384365229168907
sg32
g40
(g69
S'\x01\x00\x00\x00'
p240
tp241
Rp242
sg39
g49
sg25
I177
sg14
I-17
sg17
I72
sg37
g38
sg15
F177.83980303106364
sg31
g40
(g44
S'\x1f\x93\xb2jr\xb4\xb6?'
p243
tp244
Rp245
sg50
g55
sg23
I175
sg26
I36
sg33
g40
(g69
S'\x01\x00\x00\x00'
p246
tp247
Rp248
sg18
F1.7831189028220251
sg16
F1.199323491891846
sg29
I0
sg28
S'l'
p249
sg22
F2.9173316134838387
sg19
I107
sg24
F2.950693959603086
sg21
I109
sa(dp250
g30
I1
sg20
F1.8664318271912634
sg27
F3.06748655193951
sg32
g40
(g69
S'\x01\x00\x00\x00'
p251
tp252
Rp253
sg39
g49
sg25
I155
sg14
I-18
sg17
I72
sg37
g38
sg15
F181.24243493028916
sg31
g40
(g44
S'\xee\x11)\xb2\xf5?\xb6?'
p254
tp255
Rp256
sg50
g55
sg23
I153
sg26
I11
sg33
g40
(g69
S'\xff\xff\xff\xff'
p257
tp258
Rp259
sg18
F1.8332161335274577
sg16
F1.1993491562316194
sg29
I0
sg28
S'a'
p260
sg22
F2.5504224325995892
sg19
I110
sg24
F2.583770846715197
sg21
I112
sa(dp261
g30
I1
sg20
F1.7163117186864838
sg27
F3.0675155158387497
sg32
g40
(g69
S'\x01\x00\x00\x00'
p262
tp263
Rp264
sg39
g49
sg25
I158
sg14
I-19
sg17
I68
sg37
g38
sg15
F184.32818558590952
sg31
g40
(g44
S'r\x1a\x9a\xe4\xef\xd1\xb5?'
p265
tp266
Rp267
sg50
g55
sg23
I156
sg26
I23
sg33
g40
(g69
S'\xff\xff\xff\xff'
p268
tp269
Rp270
sg18
F1.6830633949721232
sg16
F1.1326262971851975
sg29
I0
sg28
S'a'
p271
sg22
F2.6004562359303236
sg19
I101
sg24
F2.633834713837132
sg21
I103
sa(dp272
g30
I0
sg20
F1.5995128937065601
sg27
F3.7345864545786753
sg32
g40
(g69
S'\xff\xff\xff\xff'
p273
tp274
Rp275
sg39
g49
sg25
I164
sg14
I-20
sg17
I66
sg37
g38
sg15
F187.41392450919375
sg31
g40
(g44
S'\xbf[I.\xa3h\xb5?'
p276
tp277
Rp278
sg50
g55
sg23
I162
sg26
I36
sg33
g40
(g69
S'\x01\x00\x00\x00'
p279
tp280
Rp281
sg18
F1.5662220406811684
sg16
F1.0992786162532866
sg29
I0
sg28
g129
sg22
F2.7005183432484046
sg19
I94
sg24
F2.7338018636219203
sg21
I96
sa(dp282
g30
I1
sg20
F1.6497509106993675
sg27
F3.100996650522575
sg32
g40
(g69
S'\x01\x00\x00\x00'
p283
tp284
Rp285
sg39
g49
sg25
I160
sg14
I-21
sg17
I60
sg37
g38
sg15
F191.1500266174553
sg31
g40
(g44
S'\x92\xa1\x0ex\x9b\xce\xb6?'
p286
tp287
Rp288
sg50
g55
sg23
I158
sg26
I29
sg33
g40
(g69
S'\x01\x00\x00\x00'
p289
tp290
Rp291
sg18
F1.6165000206092373
sg16
F0.9993470297195017
sg29
I0
sg28
S'l'
p292
sg22
F2.6339919986203313
sg19
I97
sg24
F2.6673147486289963
sg21
I99
sa(dp293
g30
I1
sg20
F1.7329439464956522
sg27
F2.9506224665092304
sg32
g40
(g69
S'\xff\xff\xff\xff'
p294
tp295
Rp296
sg39
g49
sg25
I144
sg14
I-22
sg17
I70
sg37
g38
sg15
F194.26939186139498
sg31
g40
(g44
S'Gi\xb4\xa3H\x7f\xb6?'
p297
tp298
Rp299
sg50
g55
sg23
I142
sg26
I8
sg33
g40
(g69
S'\x01\x00\x00\x00'
p300
tp301
Rp302
sg18
F1.699644660926424
sg16
F1.1657488663913682
sg29
I0
sg28
S'l'
p303
sg22
F2.3668629854219034
sg19
I102
sg24
F2.4001853687223047
sg21
I104
sa(dp304
g30
I1
sg20
F1.6829266414279118
sg27
F3.1007374421460554
sg32
g40
(g69
S'\x01\x00\x00\x00'
p305
tp306
Rp307
sg39
g49
sg25
I159
sg14
I-23
sg17
I61
sg37
g38
sg15
F197.23831729451194
sg31
g40
(g44
S'\xb43\xd3\xccl8\xb6?'
p308
tp309
Rp310
sg50
g55
sg23
I157
sg26
I26
sg33
g40
(g69
S'\x01\x00\x00\x00'
p311
tp312
Rp313
sg18
F1.649681617389433
sg16
F1.0158524030121043
sg29
I0
sg28
S'l'
p314
sg22
F2.6170173372374848
sg19
I99
sg24
F2.6503954484360293
sg21
I101
sa(dp315
g30
I1
sg20
F1.699572068057023
sg27
F3.567778023891151
sg32
g40
(g69
S'\x01\x00\x00\x00'
p316
tp317
Rp318
sg39
g49
sg25
I191
sg14
I-24
sg17
I61
sg37
g38
sg15
F200.35742956283502
sg31
g40
(g44
S'\x9e`i\x90\xa5\xf2\xb5?'
p319
tp320
Rp321
sg50
g55
sg23
I189
sg26
I57
sg33
g40
(g69
S'\x01\x00\x00\x00'
p322
tp323
Rp324
sg18
F1.6662834148155525
sg16
F1.0158502033445984
sg29
I0
sg28
S'l'
p325
sg22
F3.1508332062512636
sg19
I100
sg24
F3.184159622527659
sg21
I102
sa(dp326
g30
I1
sg20
F1.649634321918711
sg27
F3.134141950751655
sg32
g40
(g69
S'\xff\xff\xff\xff'
p327
tp328
Rp329
sg39
g49
sg25
I156
sg14
I-25
sg17
I66
sg37
g38
sg15
F203.9435120197013
sg31
g40
(g44
S'\xe2\x9d\x8d.C\xb3\xb5?'
p330
tp331
Rp332
sg50
g55
sg23
I154
sg26
I25
sg33
g40
(g69
S'\x01\x00\x00\x00'
p333
tp334
Rp335
sg18
F1.6162892074789852
sg16
F1.0992859489051625
sg29
I0
sg28
S'l'
p336
sg22
F2.567124320194125
sg19
I97
sg24
F2.6003865760285407
sg21
I99
sa(dp337
g30
I1
sg20
F1.8497629362391308
sg27
F4.118354074889794
sg32
g40
(g69
S'\x01\x00\x00\x00'
p338
tp339
Rp340
sg39
g49
sg25
I187
sg14
I-26
sg17
I62
sg37
g38
sg15
F207.09593127283733
sg31
g40
(g44
S'\x00\x00\x00\x00\x00\x00\x00\x00'
p341
tp342
Rp343
sg50
g55
sg23
I185
sg26
F44.0
sg33
g40
(g69
S'\x01\x00\x00\x00'
p344
tp345
Rp346
sg18
F1.816440186346881
sg16
F1.032489397097379
sg29
I0
sg28
g129
sg22
F3.084211170906201
sg19
I109
sg24
F3.1175353872822598
sg21
I111
sa(dp347
g30
I0
sg20
F1.5329267882043496
sg27
F3.951591106480919
sg32
g40
(g69
S'\xff\xff\xff\xff'
p348
tp349
Rp350
sg39
g49
sg25
I177
sg14
I-27
sg17
I60
sg37
g38
sg15
F211.2158413308207
sg31
g40
(g44
S'\xb0\xf2yx\x17:\xb5?'
p351
tp352
Rp353
sg50
g55
sg23
I175
sg26
I53
sg33
g40
(g69
S'\xff\xff\xff\xff'
p354
tp355
Rp356
sg18
F1.4995772741967812
sg16
F0.9991805790923536
sg29
I0
sg28
g129
sg22
F2.917421438265592
sg19
I90
sg24
F2.9508402455830947
sg21
I92
sa(dp357
g30
I1
sg20
F1.7830818732036278
sg27
F3.3511216717306525
sg32
g40
(g69
S'\xff\xff\xff\xff'
p358
tp359
Rp360
sg39
g49
sg25
I155
sg14
I-28
sg17
I60
sg37
g38
sg15
F215.16893085918855
sg31
g40
(g44
S'\x1e/N{\xce\x1e\xb6?'
p361
tp362
Rp363
sg50
g55
sg23
I153
sg26
I16
sg33
g40
(g69
S'\x01\x00\x00\x00'
p364
tp365
Rp366
sg18
F1.749835749156773
sg16
F0.999243639758788
sg29
I0
sg28
S'l'
p367
sg22
F2.5504407641710714
sg19
I105
sg24
F2.5837400496238843
sg21
I107
sa(dp368
g30
I1
sg20
F1.7830118465935811
sg27
F2.8672985434532166
sg32
g40
(g69
S'\xff\xff\xff\xff'
p369
tp370
Rp371
sg39
g49
sg25
I149
sg14
I-29
sg17
I69
sg37
g38
sg15
F218.53831040184014
sg31
g40
(g44
S'\x0e\xc6\xc2\x84v\xec\xb5?'
p372
tp373
Rp374
sg50
g55
sg23
I147
sg26
I10
sg33
g40
(g69
S'\x01\x00\x00\x00'
p375
tp376
Rp377
sg18
F1.7498276833212003
sg16
F1.149218195467256
sg29
I0
sg28
S'l'
p378
sg22
F2.450254002236761
sg19
I105
sg24
F2.4837010401533917
sg21
I107
sa(dp379
g30
I1
sg20
F1.6829449731158093
sg27
F3.9514118237420917
sg32
g40
(g69
S'\x01\x00\x00\x00'
p380
tp381
Rp382
sg39
g49
sg25
I212
sg14
I-30
sg17
I69
sg37
g38
sg15
F221.42388111469336
sg31
g40
(g44
S'\xde\xb7\x0e\xd9\xa1\xbd\xb5?'
p383
tp384
Rp385
sg50
g55
sg23
I210
sg26
I79
sg33
g40
(g69
S'\xff\xff\xff\xff'
p386
tp387
Rp388
sg18
F1.6497113145887852
sg16
F1.1493061870569363
sg29
I0
sg28
S'a'
p389
sg22
F3.501065430464223
sg19
I99
sg24
F3.5344354758271948
sg21
I101
sa(dp390
g30
I1
sg20
F1.5995143601903692
sg27
F3.034022282459773
sg32
g40
(g69
S'\x01\x00\x00\x00'
p391
tp392
Rp393
sg39
g49
sg25
I155
sg14
I-31
sg17
I66
sg37
g38
sg15
F225.39363550103735
sg31
g40
(g44
S'\xea\x84\x96\x08\xe6\x8d\xb5?'
p394
tp395
Rp396
sg50
g55
sg23
I153
sg26
I27
sg33
g40
(g69
S'\xff\xff\xff\xff'
p397
tp398
Rp399
sg18
F1.5662946336669847
sg16
F1.0991737598087639
sg29
I0
sg28
S'a'
p400
sg22
F2.5504008013522252
sg19
I94
sg24
F2.583669656421989
sg21
I96
sa(dp401
g30
I1
sg20
F1.7663895178120583
sg27
F3.117496524238959
sg32
g40
(g69
S'\xff\xff\xff\xff'
p402
tp403
Rp404
sg39
g49
sg25
I158
sg14
I-32
sg17
I72
sg37
g38
sg15
F228.4459783482598
sg31
g40
(g44
S'!v\xc8\x8c\xc3a\xb5?'
p405
tp406
Rp407
sg50
g55
sg23
I156
sg26
I20
sg33
g40
(g69
S'\xff\xff\xff\xff'
p408
tp409
Rp410
sg18
F1.7331202960340306
sg16
F1.1993473229231313
sg29
I0
sg28
S'a'
p411
sg22
F2.6004265387309715
sg19
I104
sg24
F2.6338574449764565
sg21
I106
sa(dp412
g30
I0
sg20
F1.7829788498347625
sg27
F3.6012001308845356
sg32
g40
(g69
S'\x01\x00\x00\x00'
p413
tp414
Rp415
sg39
g49
sg25
I156
sg14
I-33
sg17
I72
sg37
g38
sg15
F231.5818647306878
sg31
g40
(g44
S"o'}\x91U4\xb5?"
p416
tp417
Rp418
sg50
g55
sg23
I154
sg26
I17
sg33
g40
(g69
S'\xff\xff\xff\xff'
p419
tp420
Rp421
sg18
F1.7496696652378887
sg16
F1.199236600426957
sg29
I0
sg28
g129
sg22
F2.567058326676488
sg19
I105
sg24
F2.600419206195511
sg21
I107
sa(dp422
g30
I0
sg20
F1.5162395656807348
sg27
F4.285185970016755
sg32
g40
(g69
S'\x01\x00\x00\x00'
p423
tp424
Rp425
sg39
g49
sg25
I197
sg14
I-34
sg17
I63
sg37
g38
sg15
F235.18456621654332
sg31
g40
(g44
S'\x13\xb0\x1e\xb1\xf4\xdf\xb5?'
p426
tp427
Rp428
sg50
g55
sg23
I195
sg26
I74
sg33
g40
(g69
S'\x01\x00\x00\x00'
p429
tp430
Rp431
sg18
F1.482991241849959
sg16
F1.0493185058003291
sg29
I0
sg28
g129
sg22
F3.2510258343536407
sg19
I89
sg24
F3.2843892802484334
sg21
I91
sa(dp432
g30
I0
sg20
F1.7500967907253653
sg27
F3.5182476051850244
sg32
g40
(g69
S'\xff\xff\xff\xff'
p433
tp434
Rp435
sg39
g49
sg25
I151
sg14
I1
sg17
I66
sg37
g38
sg15
F272.4464820995927
sg31
g40
(g44
S'\x05\xec\xcd\x96\xbbX\xb5?'
p436
tp437
Rp438
sg50
g55
sg23
I149
sg26
I14
sg33
g40
(g69
S'\x01\x00\x00\x00'
p439
tp440
Rp441
sg18
F1.7167997049400583
sg16
F1.0997325058560818
sg29
I0
sg28
g129
sg22
F2.4841420975280926
sg19
I103
sg24
F2.517518008942716
sg21
I105
sa(dp442
g30
I1
sg20
F1.7666611917084083
sg27
F2.967663854942657
sg32
g40
(g69
S'\x01\x00\x00\x00'
p443
tp444
Rp445
sg39
g49
sg25
I153
sg14
I2
sg17
I65
sg37
g38
sg15
F275.9661881639622
sg31
g40
(g44
S'\x05\xec\xcd\x96\xbbX\xb5?'
p446
tp447
Rp448
sg50
g55
sg23
I151
sg26
I15
sg33
g40
(g69
S'\x01\x00\x00\x00'
p449
tp450
Rp451
sg18
F1.733383537386544
sg16
F1.0828388700028881
sg29
I0
sg28
S'l'
p452
sg22
F2.5172903309576213
sg19
I104
sg24
F2.550726003246382
sg21
I106
sa(dp453
g30
I1
sg20
F1.933333235559985
sg27
F3.801576221245341
sg32
g40
(g69
S'\xff\xff\xff\xff'
p454
tp455
Rp456
sg39
g49
sg25
I207
sg14
I3
sg17
I64
sg37
g38
sg15
F278.95200833282433
sg31
g40
(g44
S'\xc3:\xa0\xc1\xf7\x97\xb7?'
p457
tp458
Rp459
sg50
g55
sg23
I205
sg26
I59
sg33
g40
(g69
S'\x01\x00\x00\x00'
p460
tp461
Rp462
sg18
F1.9001520053716376
sg16
F1.0661692458670586
sg29
I0
sg28
S'l'
p463
sg22
F3.4179405882023275
sg19
I114
sg24
F3.4513088003732264
sg21
I116
sa(dp464
g30
I1
sg20
F1.8499477183213457
sg27
F4.085050023160875
sg32
g40
(g69
S'\x01\x00\x00\x00'
p465
tp466
Rp467
sg39
g49
sg25
I212
sg14
I4
sg17
I63
sg37
g38
sg15
F282.77165690937545
sg31
g40
(g44
S'\xc3:\xa0\xc1\xf7\x97\xb7?'
p468
tp469
Rp470
sg50
g55
sg23
I210
sg26
I69
sg33
g40
(g69
S'\x01\x00\x00\x00'
p471
tp472
Rp473
sg18
F1.8166246018372476
sg16
F1.0493603016948327
sg29
I0
sg28
S'l'
p474
sg22
F3.5012755101779476
sg19
I109
sg24
F3.534707516198978
sg21
I111
sa(dp475
g30
I0
sg20
F1.799938112613745
sg27
F4.1352125140838325
sg32
g40
(g69
S'\x01\x00\x00\x00'
p476
tp477
Rp478
sg39
g49
sg25
I188
sg14
I5
sg17
I65
sg37
g38
sg15
F286.87482658342924
sg31
g40
(g44
S'\x05\xec\xcd\x96\xbbX\xb5?'
p479
tp480
Rp481
sg50
g55
sg23
I186
sg26
I48
sg33
g40
(g69
S'\x01\x00\x00\x00'
p482
tp483
Rp484
sg18
F1.766690888791345
sg16
F1.0828201717231423
sg29
I0
sg28
g129
sg22
F3.1010945410234854
sg19
I106
sg24
F3.1344242568593472
sg21
I108
sa(dp485
g30
I1
sg20
F1.4830861993832514
sg27
F3.2512498459545895
sg32
g40
(g69
S'\xff\xff\xff\xff'
p486
tp487
Rp488
sg39
g49
sg25
I170
sg14
I6
sg17
I61
sg37
g38
sg15
F291.01133330597077
sg31
g40
(g44
S'\xc3:\xa0\xc1\xf7\x97\xb7?'
p489
tp490
Rp491
sg50
g55
sg23
I168
sg26
I49
sg33
g40
(g69
S'\xff\xff\xff\xff'
p492
tp493
Rp494
sg18
F1.4498371423687786
sg16
F1.0161666059866548
sg29
I0
sg28
S'a'
p495
sg22
F2.8008928204653785
sg19
I87
sg24
F2.8342591994442046
sg21
I89
sa(dp496
g30
I0
sg20
F1.7999282135860994
sg27
F3.434654941316694
sg32
g40
(g69
S'\xff\xff\xff\xff'
p497
tp498
Rp499
sg39
g49
sg25
I146
sg14
I7
sg17
I72
sg37
g38
sg15
F294.28063277632464
sg31
g40
(g44
S'"b\t\xd7\x95\xb7\xb8?'
p500
tp501
Rp502
sg50
g55
sg23
I144
sg26
I6
sg33
g40
(g69
S'\x01\x00\x00\x00'
p503
tp504
Rp505
sg18
F1.7666912553831935
sg16
F1.1995706014567986
sg29
I0
sg28
g129
sg22
F2.400511304032989
sg19
I106
sg24
F2.4338732834439725
sg21
I108
sa(dp506
g30
I0
sg20
F1.950122014968656
sg27
F4.168706480879337
sg32
g40
(g69
S'\x01\x00\x00\x00'
p507
tp508
Rp509
sg39
g49
sg25
I201
sg14
I8
sg17
I69
sg37
g38
sg15
F297.71657935960684
sg31
g40
(g44
S'"b\t\xd7\x95\xb7\xb8?'
p510
tp511
Rp512
sg50
g55
sg23
I199
sg26
I52
sg33
g40
(g69
S'\x01\x00\x00\x00'
p513
tp514
Rp515
sg18
F1.9168788240058348
sg16
F1.1496068246196955
sg29
I1
sg28
S'l'
p516
sg22
F3.3179672056576237
sg19
I115
sg24
F3.3513328513363376
sg21
I117
sa(dp517
g30
I1
sg20
F1.9500340233789757
sg27
F3.5013653348432854
sg32
g40
(g69
S'\x01\x00\x00\x00'
p518
tp519
Rp520
sg39
g49
sg25
I185
sg14
I9
sg17
I69
sg37
g38
sg15
F301.90327753697056
sg31
g40
(g44
S'\xc3:\xa0\xc1\xf7\x97\xb7?'
p521
tp522
Rp523
sg50
g55
sg23
I183
sg26
I36
sg33
g40
(g69
S'\xff\xff\xff\xff'
p524
tp525
Rp526
sg18
F1.9167871661484241
sg16
F1.1495514633134007
sg29
I0
sg28
S'a'
p527
sg22
F3.051000243402086
sg19
I115
sg24
F3.084368455572985
sg21
I117
sa(dp528
g30
I1
sg20
F1.9000137853436172
sg27
F3.834957998711616
sg32
g40
(g69
S'\xff\xff\xff\xff'
p529
tp530
Rp531
sg39
g49
sg25
I204
sg14
I10
sg17
I67
sg37
g38
sg15
F305.42268992972095
sg31
g40
(g44
S'\xc3:\xa0\xc1\xf7\x97\xb7?'
p532
tp533
Rp534
sg50
g55
sg23
I202
sg26
I58
sg33
g40
(g69
S'\x01\x00\x00\x00'
p535
tp536
Rp537
sg18
F1.866794792120345
sg16
F1.1161744520068169
sg29
I0
sg28
S'l'
p538
sg22
F3.367937581730075
sg19
I112
sg24
F3.40128049638588
sg21
I114
sa(dp539
g30
I1
sg20
F1.9333424014039338
sg27
F4.05175000440795
sg32
g40
(g69
S'\xff\xff\xff\xff'
p540
tp541
Rp542
sg39
g49
sg25
I220
sg14
I11
sg17
I64
sg37
g38
sg15
F309.2757191839628
sg31
g40
(g44
S'\xc3:\xa0\xc1\xf7\x97\xb7?'
p543
tp544
Rp545
sg50
g55
sg23
I218
sg26
I72
sg33
g40
(g69
S'\x01\x00\x00\x00'
p546
tp547
Rp548
sg18
F1.9000335833989084
sg16
F1.0661124179605395
sg29
I0
sg28
S'l'
p549
sg22
F3.634708029567264
sg19
I114
sg24
F3.6680909069254994
sg21
I116
sa(dp550
g30
I0
sg20
F1.966555161983706
sg27
F3.6679926498327404
sg32
g40
(g69
S'\xff\xff\xff\xff'
p551
tp552
Rp553
sg39
g49
sg25
I160
sg14
I12
sg17
I67
sg37
g38
sg15
F313.34567169786897
sg31
g40
(g44
S'\xc3:\xa0\xc1\xf7\x97\xb7?'
p554
tp555
Rp556
sg50
g55
sg23
I158
sg26
I10
sg33
g40
(g69
S'\xff\xff\xff\xff'
p557
tp558
Rp559
sg18
F1.9332415778189898
sg16
F1.115939807961695
sg29
I0
sg28
g129
sg22
F2.633854878600687
sg19
I116
sg24
F2.6671383989742026
sg21
I118
sa(dp560
g30
I0
sg20
F1.8000147385755554
sg27
F3.851736878976226
sg32
g40
(g69
S'\xff\xff\xff\xff'
p561
tp562
Rp563
sg39
g49
sg25
I193
sg14
I13
sg17
I68
sg37
g38
sg15
F317.0150128174573
sg31
g40
(g44
S'"b\t\xd7\x95\xb7\xb8?'
p564
tp565
Rp566
sg50
g55
sg23
I191
sg26
I53
sg33
g40
(g69
S'\x01\x00\x00\x00'
p567
tp568
Rp569
sg18
F1.7667678813450038
sg16
F1.1329401334514841
sg29
I1
sg28
S'l'
p570
sg22
F3.1845449518878013
sg19
I106
sg24
F3.21790949779097
sg21
I108
sa(dp571
g30
I1
sg20
F1.7998801849316806
sg27
F4.101824870565906
sg32
g40
(g69
S'\xff\xff\xff\xff'
p572
tp573
Rp574
sg39
g49
sg25
I210
sg14
I14
sg17
I62
sg37
g38
sg15
F320.8848051868845
sg31
g40
(g44
S'\xc3:\xa0\xc1\xf7\x97\xb7?'
p575
tp576
Rp577
sg50
g55
sg23
I208
sg26
I70
sg33
g40
(g69
S'\xff\xff\xff\xff'
p578
tp579
Rp580
sg18
F1.766568433959037
sg16
F1.0326760123716667
sg29
I0
sg28
S'a'
p581
sg22
F3.468000789056532
sg19
I106
sg24
F3.501348103163764
sg21
I108
sa(dp582
g30
I1
sg20
F1.6500112188514322
sg27
F3.5849686309229583
sg32
g40
(g69
S'\x01\x00\x00\x00'
p583
tp584
Rp585
sg39
g49
sg25
I175
sg14
I15
sg17
I67
sg37
g38
sg15
F325.0044872001745
sg31
g40
(g44
S'\x05\xec\xcd\x96\xbbX\xb5?'
p586
tp587
Rp588
sg50
g55
sg23
I173
sg26
I44
sg33
g40
(g69
S'\x01\x00\x00\x00'
p589
tp590
Rp591
sg18
F1.6167661948129535
sg16
F1.116368766524829
sg29
I0
sg28
S'l'
p592
sg22
F2.8844880507094786
sg19
I97
sg24
F2.917778170434758
sg21
I99
sa(dp593
g30
I1
sg20
F2.0000718598021194
sg27
F3.834949199575931
sg32
g40
(g69
S'\x01\x00\x00\x00'
p594
tp595
Rp596
sg39
g49
sg25
I207
sg14
I16
sg17
I68
sg37
g38
sg15
F328.6075087551726
sg31
g40
(g44
S'\xc3:\xa0\xc1\xf7\x97\xb7?'
p597
tp598
Rp599
sg50
g55
sg23
I205
sg26
I55
sg33
g40
(g69
S'\xff\xff\xff\xff'
p600
tp601
Rp602
sg18
F1.9668184032198042
sg16
F1.1328312440309674
sg29
I0
sg28
S'a'
p603
sg22
F3.418014647671953
sg19
I118
sg24
F3.4513157663168386
sg21
I120
sa(dp604
g30
I1
sg20
F1.7998504878487438
sg27
F3.1009706197073683
sg32
g40
(g69
S'\x01\x00\x00\x00'
p605
tp606
Rp607
sg39
g49
sg25
I141
sg14
I17
sg17
I72
sg37
g38
sg15
F332.46059813699685
sg31
g40
(g44
S'\x05\xec\xcd\x96\xbbX\xb5?'
p608
tp609
Rp610
sg50
g55
sg23
I139
sg26
I1
sg33
g40
(g69
S'\xff\xff\xff\xff'
p611
tp612
Rp613
sg18
F1.7666021640179679
sg16
F1.1994844431756064
sg29
I0
sg28
S'a'
p614
sg22
F2.317023863317445
sg19
I106
sg24
F2.3503843762446195
sg21
I108
sa(dp615
g30
I0
sg20
F1.8666327410610393
sg27
F4.151781314751133
sg32
g40
(g69
S'\xff\xff\xff\xff'
p616
tp617
Rp618
sg39
g49
sg25
I189
sg14
I18
sg17
I62
sg37
g38
sg15
F335.57962718000636
sg31
g40
(g44
S'\xa7\xc4d\x81\x1d9\xb4?'
p619
tp620
Rp621
sg50
g55
sg23
I187
sg26
I45
sg33
g40
(g69
S'\x01\x00\x00\x00'
p622
tp623
Rp624
sg18
F1.8333950495580211
sg16
F1.0327680368209258
sg29
I0
sg28
g129
sg22
F3.117642443627119
sg19
I110
sg24
F3.1509970903862268
sg21
I112
sa(dp625
g30
I1
sg20
F1.8167224923381582
sg27
F3.151209736475721
sg32
g40
(g69
S'\x01\x00\x00\x00'
p626
tp627
Rp628
sg39
g49
sg25
I153
sg14
I19
sg17
I66
sg37
g38
sg15
F339.73270930245053
sg31
g40
(g44
S'"b\t\xd7\x95\xb7\xb8?'
p629
tp630
Rp631
sg50
g55
sg23
I151
sg26
I12
sg33
g40
(g69
S'\xff\xff\xff\xff'
p632
tp633
Rp634
sg18
F1.7834620698122308
sg16
F1.0995235259179026
sg29
I0
sg28
S'a'
p635
sg22
F2.5173731895629317
sg19
I107
sg24
F2.550641678040847
sg21
I109
sa(dp636
g30
I0
sg20
F1.6663043127628043
sg27
F4.034999354742467
sg32
g40
(g69
S'\x01\x00\x00\x00'
p637
tp638
Rp639
sg39
g49
sg25
I182
sg14
I20
sg17
I69
sg37
g38
sg15
F342.90217947633937
sg31
g40
(g44
S'\xc3:\xa0\xc1\xf7\x97\xb7?'
p640
tp641
Rp642
sg50
g55
sg23
I180
sg26
I50
sg33
g40
(g69
S'\x01\x00\x00\x00'
p643
tp644
Rp645
sg18
F1.6330944853834808
sg16
F1.149350549443625
sg29
I0
sg28
g129
sg22
F3.0007523273816332
sg19
I98
sg24
F3.034115406800993
sg21
I100
sa(dp646
g30
I1
sg20
F1.4496992889326066
sg27
F2.7508271201513708
sg32
g40
(g69
S'\xff\xff\xff\xff'
p647
tp648
Rp649
sg39
g49
sg25
I141
sg14
I21
sg17
I60
sg37
g38
sg15
F346.93847267283127
sg31
g40
(g44
S'"b\t\xd7\x95\xb7\xb8?'
p650
tp651
Rp652
sg50
g55
sg23
I139
sg26
I22
sg33
g40
(g69
S'\x01\x00\x00\x00'
p653
tp654
Rp655
sg18
F1.4164480321342126
sg16
F0.9994511529803276
sg29
I0
sg28
S'l'
p656
sg22
F2.3171514509012923
sg19
I85
sg24
F2.3505115972366184
sg21
I87
sa(dp657
g30
I1
sg20
F1.4996986290207133
sg27
F3.418016847455874
sg32
g40
(g69
S'\x01\x00\x00\x00'
p658
tp659
Rp660
sg39
g49
sg25
I183
sg14
I22
sg17
I61
sg37
g38
sg15
F349.7073523502331
sg31
g40
(g44
S'\xc3:\xa0\xc1\xf7\x97\xb7?'
p661
tp662
Rp663
sg50
g55
sg23
I181
sg26
I61
sg33
g40
(g69
S'\xff\xff\xff\xff'
p664
tp665
Rp666
sg18
F1.4664448058465496
sg16
F1.0160918132169172
sg29
I0
sg28
S'a'
p667
sg22
F3.017664294806309
sg19
I88
sg24
F3.051020408165641
sg21
I90
sa(dp668
g30
I1
sg20
F2.016675490187481
sg27
F3.5679111109348014
sg32
g40
(g69
S'\x01\x00\x00\x00'
p669
tp670
Rp671
sg39
g49
sg25
I182
sg14
I23
sg17
I70
sg37
g38
sg15
F353.1433630940737
sg31
g40
(g44
S'\xc3:\xa0\xc1\xf7\x97\xb7?'
p672
tp673
Rp674
sg50
g55
sg23
I180
sg26
I29
sg33
g40
(g69
S'\xff\xff\xff\xff'
p675
tp676
Rp677
sg18
F1.9834300995571539
sg16
F1.1661198971560225
sg29
I0
sg28
S'a'
p678
sg22
F3.001317306072451
sg19
I119
sg24
F3.0342792908195406
sg21
I121
sa(dp679
g30
I1
sg20
F1.8333110910607502
sg27
F3.2511270246468484
sg32
g40
(g69
S'\xff\xff\xff\xff'
p680
tp681
Rp682
sg39
g49
sg25
I173
sg14
I24
sg17
I62
sg37
g38
sg15
F356.7294880801346
sg31
g40
(g44
S'\xc3:\xa0\xc1\xf7\x97\xb7?'
p683
tp684
Rp685
sg50
g55
sg23
I171
sg26
I31
sg33
g40
(g69
S'\x01\x00\x00\x00'
p686
tp687
Rp688
sg18
F1.800050301826559
sg16
F1.032783068716526
sg29
I0
sg28
S'l'
p689
sg22
F2.8508734623901546
sg19
I108
sg24
F2.884282370680012
sg21
I110
sa(dp690
g30
I1
sg20
F1.9500754527980462
sg27
F3.6347754896851256
sg32
g40
(g69
S'\xff\xff\xff\xff'
p691
tp692
Rp693
sg39
g49
sg25
I193
sg14
I25
sg17
I72
sg37
g38
sg15
F359.9986907597631
sg31
g40
(g44
S'\xc3:\xa0\xc1\xf7\x97\xb7?'
p694
tp695
Rp696
sg50
g55
sg23
I191
sg26
I44
sg33
g40
(g69
S'\xff\xff\xff\xff'
p697
tp698
Rp699
sg18
F1.9167556358734146
sg16
F1.1996065312996507
sg29
I0
sg28
S'a'
p700
sg22
F3.1844529275549576
sg19
I115
sg24
F3.217794375610538
sg21
I117
sa(dp701
g30
I1
sg20
F1.5164063828997314
sg27
F3.7015727747930214
sg32
g40
(g69
S'\xff\xff\xff\xff'
p702
tp703
Rp704
sg39
g49
sg25
I199
sg14
I26
sg17
I63
sg37
g38
sg15
F363.6515470374143
sg31
g40
(g44
S'\x05\xec\xcd\x96\xbbX\xb5?'
p705
tp706
Rp707
sg50
g55
sg23
I197
sg26
I76
sg33
g40
(g69
S'\x01\x00\x00\x00'
p708
tp709
Rp710
sg18
F1.4830905989510939
sg16
F1.0494897225871682
sg29
I0
sg28
S'l'
p711
sg22
F3.2845887276344
sg19
I89
sg24
F3.3179576731054112
sg21
I91
sa(dp712
g30
I0
sg20
F1.7331976552959532
sg27
F3.951677264762111
sg32
g40
(g69
S'\x01\x00\x00\x00'
p713
tp714
Rp715
sg39
g49
sg25
I177
sg14
I27
sg17
I67
sg37
g38
sg15
F367.3711701697903
sg31
g40
(g44
S'\x05\xec\xcd\x96\xbbX\xb5?'
p716
tp717
Rp718
sg50
g55
sg23
I175
sg26
I41
sg33
g40
(g69
S'\x01\x00\x00\x00'
p719
tp720
Rp721
sg18
F1.6998796715633944
sg16
F1.1161172575084493
sg29
I0
sg28
g129
sg22
F2.917569190612994
sg19
I102
sg24
F2.95088167488575
sg21
I104
sa(dp722
g30
I0
sg20
F1.8834090549498796
sg27
F4.48558735800907
sg32
g40
(g69
S'\x01\x00\x00\x00'
p723
tp724
Rp725
sg39
g49
sg25
I209
sg14
I28
sg17
I71
sg37
g38
sg15
F371.3241390765179
sg31
g40
(g44
S'\xa7\xc4d\x81\x1d9\xb4?'
p726
tp727
Rp728
sg50
g55
sg23
I207
sg26
I64
sg33
g40
(g69
S'\xff\xff\xff\xff'
p729
tp730
Rp731
sg18
F1.8501057365210727
sg16
F1.182935440680012
sg29
I0
sg28
g129
sg22
F3.451440420933068
sg19
I111
sg24
F3.4847983674844727
sg21
I113
sa(dp732
g30
I0
sg20
F1.7499420723179355
sg27
F3.6015132339671254
sg32
g40
(g69
S'\xff\xff\xff\xff'
p733
tp734
Rp735
sg39
g49
sg25
I156
sg14
I29
sg17
I61
sg37
g38
sg15
F375.81102687562816
sg31
g40
(g44
S'\xc3:\xa0\xc1\xf7\x97\xb7?'
p736
tp737
Rp738
sg50
g55
sg23
I154
sg26
I19
sg33
g40
(g69
S'\xff\xff\xff\xff'
p739
tp740
Rp741
sg18
F1.716705480706878
sg16
F1.0161207771161571
sg29
I0
sg28
g129
sg22
F2.5673212013207376
sg19
I103
sg24
F2.6007286430103704
sg21
I105
sa(dp742
g30
I0
sg20
F1.9501832423266023
sg27
F3.117865722044371
sg32
g40
(g69
S'\x01\x00\x00\x00'
p743
tp744
Rp745
sg39
g49
sg25
I153
sg14
I30
sg17
I66
sg37
g38
sg15
F379.4138284517685
sg31
g40
(g44
S'\xc3:\xa0\xc1\xf7\x97\xb7?'
p746
tp747
Rp748
sg50
g55
sg23
I151
sg26
I4
sg33
g40
(g69
S'\x01\x00\x00\x00'
p749
tp750
Rp751
sg18
F1.9168040312360972
sg16
F1.0995733878808096
sg29
I1
sg28
S'l'
p752
sg22
F2.5173607241595164
sg19
I115
sg24
F2.5507062051910907
sg21
I117
sa(dp753
g30
I1
sg20
F2.0000036663841456
sg27
F3.334454614087008
sg32
g40
(g69
S'\xff\xff\xff\xff'
p754
tp755
Rp756
sg39
g49
sg25
I175
sg14
I31
sg17
I72
sg37
g38
sg15
F382.54971520090476
sg31
g40
(g44
S'\xc3:\xa0\xc1\xf7\x97\xb7?'
p757
tp758
Rp759
sg50
g55
sg23
I173
sg26
I23
sg33
g40
(g69
S'\x01\x00\x00\x00'
p760
tp761
Rp762
sg18
F1.9666977814631537
sg16
F1.199498375179246
sg29
I0
sg28
S'l'
p763
sg22
F2.884150750003755
sg19
I118
sg24
F2.9175277614267543
sg21
I120
sa(dp764
g30
I1
sg20
F1.9167233722982928
sg27
F3.2345303599722683
sg32
g40
(g69
S'\xff\xff\xff\xff'
p765
tp766
Rp767
sg39
g49
sg25
I172
sg14
I32
sg17
I69
sg37
g38
sg15
F385.9022923987359
sg31
g40
(g44
S'\x05\xec\xcd\x96\xbbX\xb5?'
p768
tp769
Rp770
sg50
g55
sg23
I170
sg26
I25
sg33
g40
(g69
S'\x01\x00\x00\x00'
p771
tp772
Rp773
sg18
F1.8833991558058187
sg16
F1.1494946354068816
sg29
I0
sg28
S'l'
p774
sg22
F2.834216670249589
sg19
I113
sg24
F2.867571317125112
sg21
I115
sa(dp775
g30
I1
sg20
F1.5496132773114368
sg27
F3.60133725090418
sg32
g40
(g69
S'\xff\xff\xff\xff'
p776
tp777
Rp778
sg39
g49
sg25
I156
sg14
I33
sg17
I64
sg37
g38
sg15
F389.1549281110056
sg31
g40
(g44
S'\x00\x00\x00\x00\x00\x00\x00\x00'
p779
tp780
Rp781
sg50
g55
sg23
I154
sg26
F31.0
sg33
g40
(g69
S'\xff\xff\xff\xff'
p782
tp783
Rp784
sg18
F1.5164159153355286
sg16
F1.0660203935112804
sg29
I0
sg28
g129
sg22
F2.567130186362192
sg19
I91
sg24
F2.600561825791374
sg21
I93
sa(dp785
g30
I1
sg20
F1.533118536346592
sg27
F3.0176752937259153
sg32
g40
(g69
S'\x01\x00\x00\x00'
p786
tp787
Rp788
sg39
g49
sg25
I142
sg14
I34
sg17
I62
sg37
g38
sg15
F392.7576050325297
sg31
g40
(g44
S'\xc3:\xa0\xc1\xf7\x97\xb7?'
p789
tp790
Rp791
sg50
g55
sg23
I140
sg26
I18
sg33
g40
(g69
S'\x01\x00\x00\x00'
p792
tp793
Rp794
sg18
F1.499811184941791
sg16
F1.032813499099575
sg29
I0
sg28
S'l'
p795
sg22
F2.3338830358115956
sg19
I90
sg24
F2.367158123641275
sg21
I92
sa(dp796
g30
I1
sg20
F1.7331829901086167
sg27
F2.9509205378126353
sg32
g40
(g69
S'\x01\x00\x00\x00'
p797
tp798
Rp799
sg39
g49
sg25
I145
sg14
I35
sg17
I69
sg37
g38
sg15
F395.7934373735916
sg31
g40
(g44
S'\x05\xec\xcd\x96\xbbX\xb5?'
p800
tp801
Rp802
sg50
g55
sg23
I143
sg26
I9
sg33
g40
(g69
S'\x01\x00\x00\x00'
p803
tp804
Rp805
sg18
F1.6999331997940317
sg16
F1.149557696073316
sg29
I0
sg28
S'l'
p806
sg22
F2.383789984858595
sg19
I102
sg24
F2.4170735051156953
sg21
I104
sa(dp807
g30
I0
sg20
F1.5830650815041736
sg27
F4.43536143982783
sg32
g40
(g69
S'\xff\xff\xff\xff'
p808
tp809
Rp810
sg39
g49
sg25
I206
sg14
I36
sg17
I61
sg37
g38
sg15
F398.76237930497155
sg31
g40
(g44
S'\x05\xec\xcd\x96\xbbX\xb5?'
p811
tp812
Rp813
sg50
g55
sg23
I204
sg26
I79
sg33
g40
(g69
S'\x01\x00\x00\x00'
p814
tp815
Rp816
sg18
F1.5499080489389598
sg16
F1.0160661491099745
sg29
I0
sg28
g129
sg22
F3.4013112934771925
sg19
I93
sg24
F3.4346703398041427
sg21
I95
sa(dp817
g30
I1
sg20
F1.566541009931825
sg27
F3.8684640643186867
sg32
g40
(g69
S'\x01\x00\x00\x00'
p818
tp819
Rp820
sg39
g49
sg25
I205
sg14
I37
sg17
I63
sg37
g38
sg15
F403.1990426525008
sg31
g40
(g44
S'"b\t\xd7\x95\xb7\xb8?'
p821
tp822
Rp823
sg50
g55
sg23
I203
sg26
I79
sg33
g40
(g69
S'\xff\xff\xff\xff'
p824
tp825
Rp826
sg18
F1.5333066181046888
sg16
F1.0495216195704415
sg29
I0
sg28
S'a'
p827
sg22
F3.384754591737874
sg19
I92
sg24
F3.4181334362365305
sg21
I94
sa(dp828
g30
I0
sg20
F1.9333321356680244
sg27
F4.735594690544531
sg32
g40
(g69
S'\xff\xff\xff\xff'
p829
tp830
Rp831
sg39
g49
sg25
I224
sg14
I38
sg17
I72
sg37
g38
sg15
F407.0855842049932
sg31
g40
(g44
S'\xc3:\xa0\xc1\xf7\x97\xb7?'
p832
tp833
Rp834
sg50
g55
sg23
I222
sg26
I76
sg33
g40
(g69
S'\xff\xff\xff\xff'
p835
tp836
Rp837
sg18
F1.900025884155184
sg16
F1.1995662018889561
sg29
I0
sg28
g129
sg22
F3.7014349214732647
sg19
I114
sg24
F3.7347961677005515
sg21
I116
sa(dp838
g30
I0
sg20
F1.6833167371805757
sg27
F3.5682634436525404
sg32
g40
(g69
S'\x01\x00\x00\x00'
p839
tp840
Rp841
sg39
g49
sg25
I154
sg14
I39
sg17
I68
sg37
g38
sg15
F411.82247677026317
sg31
g40
(g44
S'\x05\xec\xcd\x96\xbbX\xb5?'
p842
tp843
Rp844
sg50
g55
sg23
I152
sg26
I21
sg33
g40
(g69
S'\x01\x00\x00\x00'
p845
tp846
Rp847
sg18
F1.6500654802657664
sg16
F1.1329951281659305
sg29
I0
sg28
g129
sg22
F2.5340945087373257
sg19
I99
sg24
F2.5674491554964334
sg21
I101
sa(dp848
g30
I0
sg20
F1.8666822363156825
sg27
F4.335408221930265
sg32
g40
(g69
S'\x01\x00\x00\x00'
p849
tp850
Rp851
sg39
g49
sg25
I200
sg14
I40
sg17
I69
sg37
g38
sg15
F415.39203808864113
sg31
g40
(g44
S'\x05\xec\xcd\x96\xbbX\xb5?'
p852
tp853
Rp854
sg50
g55
sg23
I198
sg26
I56
sg33
g40
(g69
S'\xff\xff\xff\xff'
p855
tp856
Rp857
sg18
F1.833440878544934
sg16
F1.1495148001704365
sg29
I0
sg28
g129
sg22
F3.301267884322442
sg19
I110
sg24
F3.3345257404726
sg21
I112
sa(dp858
g30
I1
sg20
F1.699818444205448
sg27
F4.051805732422508
sg32
g40
(g69
S'\x01\x00\x00\x00'
p859
tp860
Rp861
sg39
g49
sg25
I212
sg14
I41
sg17
I62
sg37
g38
sg15
F419.7287507846486
sg31
g40
(g44
S'\xc3:\xa0\xc1\xf7\x97\xb7?'
p862
tp863
Rp864
sg50
g55
sg23
I210
sg26
I78
sg33
g40
(g69
S'\xff\xff\xff\xff'
p865
tp866
Rp867
sg18
F1.6665378569159657
sg16
F1.032662080368027
sg29
I0
sg28
S'a'
p868
sg22
F3.501376333879307
sg19
I100
sg24
F3.534731713938527
sg21
I102
sa(dp869
g30
I1
sg20
F1.649801139254123
sg27
F3.5179667656775564
sg32
g40
(g69
S'\x01\x00\x00\x00'
p870
tp871
Rp872
sg39
g49
sg25
I180
sg14
I42
sg17
I66
sg37
g38
sg15
F423.79866370232776
sg31
g40
(g44
S'\xc3:\xa0\xc1\xf7\x97\xb7?'
p873
tp874
Rp875
sg50
g55
sg23
I178
sg26
I49
sg33
g40
(g69
S'\x01\x00\x00\x00'
p876
tp877
Rp878
sg18
F1.616556848399341
sg16
F1.0994820967316628
sg29
I0
sg28
S'l'
p879
sg22
F2.9676136263879016
sg19
I97
sg24
F3.0009737727232277
sg21
I99
sa(dp880
g30
I1
sg20
F1.9499782953644171
sg27
F4.251839755685069
sg32
g40
(g69
S'\xff\xff\xff\xff'
p881
tp882
Rp883
sg39
g49
sg25
I223
sg14
I43
sg17
I65
sg37
g38
sg15
F427.3347717500292
sg31
g40
(g44
S'\xa7\xc4d\x81\x1d9\xb4?'
p884
tp885
Rp886
sg50
g55
sg23
I221
sg26
I74
sg33
g40
(g69
S'\x01\x00\x00\x00'
p887
tp888
Rp889
sg18
F1.9166947749909014
sg16
F1.0826944172149524
sg29
I0
sg28
S'l'
p890
sg22
F3.684847789350897
sg19
I115
sg24
F3.7181089451769367
sg21
I117
sa(dp891
g30
I1
sg20
F1.6997740818187594
sg27
F3.6681572672678158
sg32
g40
(g69
S'\xff\xff\xff\xff'
p892
tp893
Rp894
sg39
g49
sg25
I160
sg14
I44
sg17
I61
sg37
g38
sg15
F431.6048114489531
sg31
g40
(g44
S'\x00\x00\x00\x00\x00\x00\x00\x00'
p895
tp896
Rp897
sg50
g55
sg23
I158
sg26
F26.0
sg33
g40
(g69
S'\xff\xff\xff\xff'
p898
tp899
Rp900
sg18
F1.6665899185463786
sg16
F1.0160470842383802
sg29
I0
sg28
g129
sg22
F2.634009230299853
sg19
I100
sg24
F2.667318781488575
sg21
I102
sa(dp901
g30
I0
sg20
F1.6500167183112353
sg27
F4.118677810300142
sg32
g40
(g69
S'\x01\x00\x00\x00'
p902
tp903
Rp904
sg39
g49
sg25
I187
sg14
I45
sg17
I67
sg37
g38
sg15
F456.2403469652636
sg31
g40
(g44
S'\xc3:\xa0\xc1\xf7\x97\xb7?'
p905
tp906
Rp907
sg50
g55
sg23
I185
sg26
I56
sg33
g40
(g69
S'\x01\x00\x00\x00'
p908
tp909
Rp910
sg18
F1.6167650949209929
sg16
F1.1163192712701857
sg29
I0
sg28
g129
sg22
F3.084561303607188
sg19
I97
sg24
F3.1179749781731516
sg21
I99
sa(dp911
g30
I1
sg20
F1.8667771937325597
sg27
F4.068636674201116
sg32
g40
(g69
S'\xff\xff\xff\xff'
p912
tp913
Rp914
sg39
g49
sg25
I208
sg14
I46
sg17
I71
sg37
g38
sg15
F460.36044693819713
sg31
g40
(g44
S'\xa7\xc4d\x81\x1d9\xb4?'
p915
tp916
Rp917
sg50
g55
sg23
I206
sg26
I64
sg33
g40
(g69
S'\x01\x00\x00\x00'
p918
tp919
Rp920
sg18
F1.8334654427599162
sg16
F1.1830278316047043
sg29
I0
sg28
S'l'
p921
sg22
F3.434730833978392
sg19
I110
sg24
F3.4680741152260453
sg21
I112
sa(dp922
g30
I0
sg20
F1.4663296836661175
sg27
F4.28539348335471
sg32
g40
(g69
S'\x01\x00\x00\x00'
p923
tp924
Rp925
sg39
g49
sg25
I197
sg14
I47
sg17
I60
sg37
g38
sg15
F464.44711087225005
sg31
g40
(g44
S'\xa7\xc4d\x81\x1d9\xb4?'
p926
tp927
Rp928
sg50
g55
sg23
I195
sg26
I77
sg33
g40
(g69
S'\x01\x00\x00\x00'
p929
tp930
Rp931
sg18
F1.4330424970248714
sg16
F0.9994801168795675
sg29
I0
sg28
g129
sg22
F3.251111259451136
sg19
I86
sg24
F3.2844699391862378
sg21
I88
sa(dp932
g30
I1
sg20
F1.6498081050813198
sg27
F3.9684051831718534
sg32
g40
(g69
S'\x01\x00\x00\x00'
p933
tp934
Rp935
sg39
g49
sg25
I208
sg14
I48
sg17
I60
sg37
g38
sg15
F468.73379379778635
sg31
g40
(g44
S'\x05\xec\xcd\x96\xbbX\xb5?'
p936
tp937
Rp938
sg50
g55
sg23
I206
sg26
I77
sg33
g40
(g69
S'\xff\xff\xff\xff'
p939
tp940
Rp941
sg18
F1.616518352064304
sg16
F0.9994192559970543
sg29
I0
sg28
S'a'
p942
sg22
F3.4346593408845365
sg19
I97
sg24
F3.4679622926050797
sg21
I99
sa(dp943
g30
I1
sg20
F1.7499153080862015
sg27
F3.6514960755594075
sg32
g40
(g69
S'\x01\x00\x00\x00'
p944
tp945
Rp946
sg39
g49
sg25
I190
sg14
I49
sg17
I66
sg37
g38
sg15
F472.7202119422145
sg31
g40
(g44
S'\xc3:\xa0\xc1\xf7\x97\xb7?'
p947
tp948
Rp949
sg50
g55
sg23
I188
sg26
I53
sg33
g40
(g69
S'\x01\x00\x00\x00'
p950
tp951
Rp952
sg18
F1.7166248217690736
sg16
F1.0994637650437653
sg29
I0
sg28
S'l'
p953
sg22
F3.1344488211907446
sg19
I103
sg24
F3.167855896288529
sg21
I105
sa(dp954
g30
I1
sg20
F1.5497951264260337
sg27
F3.3012572519946843
sg32
g40
(g69
S'\x01\x00\x00\x00'
p955
tp956
Rp957
sg39
g49
sg25
I162
sg14
I50
sg17
I60
sg37
g38
sg15
F476.3897598418407
sg31
g40
(g44
S'"b\t\xd7\x95\xb7\xb8?'
p958
tp959
Rp960
sg50
g55
sg23
I160
sg26
I37
sg33
g40
(g69
S'\xff\xff\xff\xff'
p961
tp962
Rp963
sg18
F1.5164694435661659
sg16
F0.9994606854161248
sg29
I0
sg28
S'a'
p964
sg22
F2.667413372430019
sg19
I91
sg24
F2.700824847095646
sg21
I93
sa(dp965
g30
I1
sg20
F1.7499094421509653
sg27
F3.9684304809197783
sg32
g40
(g69
S'\xff\xff\xff\xff'
p966
tp967
Rp968
sg39
g49
sg25
I210
sg14
I51
sg17
I67
sg37
g38
sg15
F479.7090524195228
sg31
g40
(g44
S'\xc3:\xa0\xc1\xf7\x97\xb7?'
p969
tp970
Rp971
sg50
g55
sg23
I208
sg26
I73
sg33
g40
(g69
S'\xff\xff\xff\xff'
p972
tp973
Rp974
sg18
F1.716663684695959
sg16
F1.1161242234520614
sg29
I0
sg28
S'a'
p975
sg22
F3.4680370854912326
sg19
I103
sg24
F3.501396131934598
sg21
I105
sa(dp976
g30
I1
sg20
F1.8499660498928279
sg27
F3.8016293827677146
sg32
g40
(g69
S'\xff\xff\xff\xff'
p977
tp978
Rp979
sg39
g49
sg25
I205
sg14
I52
sg17
I65
sg37
g38
sg15
F483.6955292249331
sg31
g40
(g44
S'\xc3:\xa0\xc1\xf7\x97\xb7?'
p980
tp981
Rp982
sg50
g55
sg23
I203
sg26
I62
sg33
g40
(g69
S'\x01\x00\x00\x00'
p983
tp984
Rp985
sg18
F1.8167184594785795
sg16
F1.0828099061036482
sg29
I0
sg28
S'l'
p986
sg22
F3.3846138053340837
sg19
I109
sg24
F3.4179765180451795
sg21
I111
sa(dp987
g30
I0
sg20
F1.633126015542075
sg27
F3.451317599392496
sg32
g40
(g69
S'\xff\xff\xff\xff'
p988
tp989
Rp990
sg39
g49
sg25
I147
sg14
I53
sg17
I60
sg37
g38
sg15
F487.51517633500043
sg31
g40
(g44
S'\xa7\xc4d\x81\x1d9\xb4?'
p991
tp992
Rp993
sg50
g55
sg23
I145
sg26
I17
sg33
g40
(g69
S'\xff\xff\xff\xff'
p994
tp995
Rp996
sg18
F1.5998853909550235
sg16
F0.9994133899454027
sg29
I0
sg28
g129
sg22
F2.417218691087328
sg19
I96
sg24
F2.4505465738475323
sg21
I98
sa(dp997
g30
I1
sg20
F1.5665127793326974
sg27
F3.0843669892055914
sg32
g40
(g69
S'\xff\xff\xff\xff'
p998
tp999
Rp1000
sg39
g49
sg25
I161
sg14
I54
sg17
I66
sg37
g38
sg15
F490.96779107593466
sg31
g40
(g44
S'\xc3:\xa0\xc1\xf7\x97\xb7?'
p1001
tp1002
Rp1003
sg50
g55
sg23
I159
sg26
I35
sg33
g40
(g69
S'\x01\x00\x00\x00'
p1004
tp1005
Rp1006
sg18
F1.5331661984091625
sg16
F1.0994901625672355
sg29
I0
sg28
S'l'
p1007
sg22
F2.6507173507707193
sg19
I92
sg24
F2.684078596998006
sg21
I94
sa(dp1008
g30
I1
sg20
F1.6662753488635644
sg27
F3.7512953082332388
sg32
g40
(g69
S'\x01\x00\x00\x00'
p1009
tp1010
Rp1011
sg39
g49
sg25
I198
sg14
I55
sg17
I70
sg37
g38
sg15
F494.0703547084704
sg31
g40
(g44
S'"b\t\xd7\x95\xb7\xb8?'
p1012
tp1013
Rp1014
sg50
g55
sg23
I196
sg26
I66
sg33
g40
(g69
S'\xff\xff\xff\xff'
p1015
tp1016
Rp1017
sg18
F1.633006860385649
sg16
F1.1659413478337228
sg29
I0
sg28
S'a'
p1018
sg22
F3.2676705275662243
sg19
I98
sg24
F3.300944148795679
sg21
I100
sa(dp1019
g30
I0
sg20
F1.8165501756593585
sg27
F4.401976362569258
sg32
g40
(g69
S'\x01\x00\x00\x00'
p1020
tp1021
Rp1022
sg39
g49
sg25
I204
sg14
I56
sg17
I62
sg37
g38
sg15
F497.8399383180076
sg31
g40
(g44
S'\x05\xec\xcd\x96\xbbX\xb5?'
p1023
tp1024
Rp1025
sg50
g55
sg23
I202
sg26
I63
sg33
g40
(g69
S'\x01\x00\x00\x00'
p1026
tp1027
Rp1028
sg18
F1.7833495140075684
sg16
F1.0327563046012074
sg29
I0
sg28
g129
sg22
F3.3678536232328042
sg19
I107
sg24
F3.401190671720542
sg21
I109
sa(dp1029
g30
I0
sg20
F1.8667753606569022
sg27
F3.784998254850507
sg32
g40
(g69
S'\x01\x00\x00\x00'
p1030
tp1031
Rp1032
sg39
g49
sg25
I167
sg14
I57
sg17
I60
sg37
g38
sg15
F502.2432055892423
sg31
g40
(g44
S'\x05\xec\xcd\x96\xbbX\xb5?'
p1033
tp1034
Rp1035
sg50
g55
sg23
I165
sg26
I23
sg33
g40
(g69
S'\xff\xff\xff\xff'
p1036
tp1037
Rp1038
sg18
F1.833469842444174
sg16
F0.9994999149348587
sg29
I0
sg28
g129
sg22
F2.7508729491382837
sg19
I110
sg24
F2.7842308955732733
sg21
I112
sa(dp1039
g30
I0
sg20
F1.699990394175984
sg27
F4.152074986253865
sg32
g40
(g69
S'\x01\x00\x00\x00'
p1040
tp1041
Rp1042
sg39
g49
sg25
I189
sg14
I58
sg17
I62
sg37
g38
sg15
F506.02949988562614
sg31
g40
(g44
S'\x05\xec\xcd\x96\xbbX\xb5?'
p1043
tp1044
Rp1045
sg50
g55
sg23
I187
sg26
I55
sg33
g40
(g69
S'\x01\x00\x00\x00'
p1046
tp1047
Rp1048
sg18
F1.6667512361891568
sg16
F1.0328505287179723
sg29
I0
sg28
g129
sg22
F3.117967278813012
sg19
I100
sg24
F3.151270597241819
sg21
I102
sa(dp1049
g30
I0
sg20
F1.5831351079978049
sg27
F3.718251931364648
sg32
g40
(g69
S'\xff\xff\xff\xff'
p1050
tp1051
Rp1052
sg39
g49
sg25
I163
sg14
I59
sg17
I66
sg37
g38
sg15
F510.1828606479103
sg31
g40
(g44
S'\x05\xec\xcd\x96\xbbX\xb5?'
p1053
tp1054
Rp1055
sg50
g55
sg23
I161
sg26
I36
sg33
g40
(g69
S'\xff\xff\xff\xff'
p1056
tp1057
Rp1058
sg18
F1.5499230807181448
sg16
F1.099535258137621
sg29
I0
sg28
g129
sg22
F2.6841324917040765
sg19
I93
sg24
F2.7174977709073573
sg21
I95
sa(dp1059
g30
I1
sg20
F2.050201720558107
sg27
F4.235357846831903
sg32
g40
(g69
S'\x01\x00\x00\x00'
p1060
tp1061
Rp1062
sg39
g49
sg25
I215
sg14
I60
sg17
I72
sg37
g38
sg15
F513.9024067877326
sg31
g40
(g44
S'\x05\xec\xcd\x96\xbbX\xb5?'
p1063
tp1064
Rp1065
sg50
g55
sg23
I213
sg26
I60
sg33
g40
(g69
S'\xff\xff\xff\xff'
p1066
tp1067
Rp1068
sg18
F2.016960729495622
sg16
F1.1996538267703727
sg29
I0
sg28
S'a'
p1069
sg22
F3.5514251691056415
sg19
I121
sg24
F3.5847600179258734
sg21
I123
sa(dp1070
g30
I1
sg20
F1.9833758381428197
sg27
F3.3177175297169015
sg32
g40
(g69
S'\x01\x00\x00\x00'
p1071
tp1072
Rp1073
sg39
g49
sg25
I172
sg14
I61
sg17
I70
sg37
g38
sg15
F518.1558333236026
sg31
g40
(g44
S'"b\t\xd7\x95\xb7\xb8?'
p1074
tp1075
Rp1076
sg50
g55
sg23
I170
sg26
I21
sg33
g40
(g69
S'\xff\xff\xff\xff'
p1077
tp1078
Rp1079
sg18
F1.9501319139963016
sg16
F1.166257384000346
sg29
I0
sg28
S'a'
p1080
sg22
F2.8340553524903953
sg19
I117
sg24
F2.8675148559268564
sg21
I119
sa(dp1081
g30
I1
sg20
F1.7164576379582286
sg27
F2.834233168628998
sg32
g40
(g69
S'\xff\xff\xff\xff'
p1082
tp1083
Rp1084
sg39
g49
sg25
I140
sg14
I62
sg17
I60
sg37
g38
sg15
F521.4917958920123
sg31
g40
(g44
S'\xc3:\xa0\xc1\xf7\x97\xb7?'
p1085
tp1086
Rp1087
sg50
g55
sg23
I138
sg26
I5
sg33
g40
(g69
S'\xff\xff\xff\xff'
p1088
tp1089
Rp1090
sg18
F1.6831568859051913
sg16
F0.9993569287471473
sg29
I0
sg28
S'a'
p1091
sg22
F2.3003714707447216
sg19
I101
sg24
F2.333680288749747
sg21
I103
sa(dp1092
g30
I0
sg20
F1.849825263605453
sg27
F4.268434953759424
sg32
g40
(g69
S'\x01\x00\x00\x00'
p1093
tp1094
Rp1095
sg39
g49
sg25
I196
sg14
I63
sg17
I61
sg37
g38
sg15
F524.3441113152076
sg31
g40
(g44
S'\xc3:\xa0\xc1\xf7\x97\xb7?'
p1096
tp1097
Rp1098
sg50
g55
sg23
I194
sg26
I53
sg33
g40
(g69
S'\xff\xff\xff\xff'
p1099
tp1100
Rp1101
sg18
F1.816530011012219
sg16
F1.0159755911445245
sg29
I0
sg28
g129
sg22
F3.23429241636768
sg19
I109
sg24
F3.2676558622624725
sg21
I111
sa(dp1102
g30
I0
sg20
F1.633212540531531
sg27
F3.4681155445287004
sg32
g40
(g69
S'\xff\xff\xff\xff'
p1103
tp1104
Rp1105
sg39
g49
sg25
I148
sg14
I64
sg17
I63
sg37
g38
sg15
F528.6138643083395
sg31
g40
(g44
S'\xc3:\xa0\xc1\xf7\x97\xb7?'
p1106
tp1107
Rp1108
sg50
g55
sg23
I146
sg26
I18
sg33
g40
(g69
S'\x01\x00\x00\x00'
p1109
tp1110
Rp1111
sg18
F1.5999781487043947
sg16
F1.0495406843256205
sg29
I0
sg28
g129
sg22
F2.4339737403206527
sg19
I96
sg24
F2.46735368471127
sg21
I98
sa(dp1112
g30
I0
sg20
F1.816683629527688
sg27
F4.185170058277436
sg32
g40
(g69
S'\xff\xff\xff\xff'
p1113
tp1114
Rp1115
sg39
g49
sg25
I191
sg14
I65
sg17
I69
sg37
g38
sg15
F532.0832971590571
sg31
g40
(g44
S'\xc3:\xa0\xc1\xf7\x97\xb7?'
p1116
tp1117
Rp1118
sg50
g55
sg23
I189
sg26
I50
sg33
g40
(g69
S'\xff\xff\xff\xff'
p1119
tp1120
Rp1121
sg18
F1.7834301729453728
sg16
F1.149611224187538
sg29
I0
sg28
g129
sg22
F3.1511969044804573
sg19
I107
sg24
F3.1845119551289827
sg21
I109
sa(dp1122
g30
I1
sg20
F1.6164156952872872
sg27
F2.900875002145767
sg32
g40
(g69
S'\xff\xff\xff\xff'
p1123
tp1124
Rp1125
sg39
g49
sg25
I138
sg14
I66
sg17
I62
sg37
g38
sg15
F536.2697962557431
sg31
g40
(g44
S'\x05\xec\xcd\x96\xbbX\xb5?'
p1126
tp1127
Rp1128
sg50
g55
sg23
I136
sg26
I9
sg33
g40
(g69
S'\xff\xff\xff\xff'
p1129
tp1130
Rp1131
sg18
F1.583127775345929
sg16
F1.032744572381489
sg29
I0
sg28
S'a'
p1132
sg22
F2.2669761278666556
sg19
I95
sg24
F2.3004059341037646
sg21
I97
sa(dp1133
g30
I1
sg20
F1.583065448096022
sg27
F3.184462826466188
sg32
g40
(g69
S'\xff\xff\xff\xff'
p1134
tp1135
Rp1136
sg39
g49
sg25
I131
sg14
I67
sg17
I62
sg37
g38
sg15
F539.1889298619935
sg31
g40
(g44
S'\x00\x00\x00\x00\x00\x00\x00\x00'
p1137
tp1138
Rp1139
sg50
g55
sg23
I129
sg26
F4.0
sg33
g40
(g69
S'\xff\xff\xff\xff'
p1140
tp1141
Rp1142
sg18
F1.5497800945304334
sg16
F1.0326815117150545
sg29
I0
sg28
g129
sg22
F2.150234863976948
sg19
I93
sg24
F2.1836041760398075
sg21
I95
sa(dp1143
g30
I1
sg20
F1.6331960421521217
sg27
F2.850858063902706
sg32
g40
(g69
S'\xff\xff\xff\xff'
p1144
tp1145
Rp1146
sg39
g49
sg25
I138
sg14
I68
sg17
I63
sg37
g38
sg15
F542.3746912964853
sg31
g40
(g44
S'\xc3:\xa0\xc1\xf7\x97\xb7?'
p1147
tp1148
Rp1149
sg50
g55
sg23
I136
sg26
I8
sg33
g40
(g69
S'\x01\x00\x00\x00'
p1150
tp1151
Rp1152
sg18
F1.5999554176814854
sg16
F1.0495208862703294
sg29
I0
sg28
S'l'
p1153
sg22
F2.267087217187509
sg19
I96
sg24
F2.30045616265852
sg21
I98
sa(dp1154
g30
I0
sg20
F1.6998279766412452
sg27
F4.368691742303781
sg32
g40
(g69
S'\xff\xff\xff\xff'
p1155
tp1156
Rp1157
sg39
g49
sg25
I202
sg14
I69
sg17
I63
sg37
g38
sg15
F545.2437203396112
sg31
g40
(g44
S'\xc3:\xa0\xc1\xf7\x97\xb7?'
p1158
tp1159
Rp1160
sg50
g55
sg23
I200
sg26
I68
sg33
g40
(g69
S'\xff\xff\xff\xff'
p1161
tp1162
Rp1163
sg18
F1.6665807528188452
sg16
F1.0494262954453006
sg29
I0
sg28
g129
sg22
F3.334543338860385
sg19
I100
sg24
F3.3679104511393234
sg21
I102
sa(dp1164
g30
I0
sg20
F1.9333435012958944
sg27
F3.784814939252101
sg32
g40
(g69
S'\xff\xff\xff\xff'
p1165
tp1166
Rp1167
sg39
g49
sg25
I167
sg14
I70
sg17
I65
sg37
g38
sg15
F549.6136879586847
sg31
g40
(g44
S'\x05\xec\xcd\x96\xbbX\xb5?'
p1168
tp1169
Rp1170
sg50
g55
sg23
I165
sg26
I19
sg33
g40
(g69
S'\x01\x00\x00\x00'
p1171
tp1172
Rp1173
sg18
F1.900090777897276
sg16
F1.0827879082644358
sg29
I0
sg28
g129
sg22
F2.7506705686682835
sg19
I114
sg24
F2.7841044078813866
sg21
I116
sa(dp1174
g30
I1
sg20
F1.6332917329855263
sg27
F3.484791034832597
sg32
g40
(g69
S'\xff\xff\xff\xff'
p1175
tp1176
Rp1177
sg39
g49
sg25
I149
sg14
I71
sg17
I68
sg37
g38
sg15
F553.3999004963553
sg31
g40
(g44
S'\x00\x00\x00\x00\x00\x00\x00\x00'
p1178
tp1179
Rp1180
sg50
g55
sg23
I147
sg26
F19.0
sg33
g40
(g69
S'\xff\xff\xff\xff'
p1181
tp1182
Rp1183
sg18
F1.6000375431030989
sg16
F1.1330028275260702
sg29
I0
sg28
g129
sg22
F2.450779751408845
sg19
I96
sg24
F2.4840141432359815
sg21
I98
sa(dp1184
g30
I1
sg20
F1.7333538403036073
sg27
F2.7676129664760083
sg32
g40
(g69
S'\xff\xff\xff\xff'
p1185
tp1186
Rp1187
sg39
g49
sg25
I140
sg14
I72
sg17
I67
sg37
g38
sg15
F556.8859721742338
sg31
g40
(g44
S'\x05\xec\xcd\x96\xbbX\xb5?'
p1188
tp1189
Rp1190
sg50
g55
sg23
I138
sg26
I4
sg33
g40
(g69
S'\xff\xff\xff\xff'
p1191
tp1192
Rp1193
sg18
F1.7000780191738158
sg16
F1.1163438357179984
sg29
I0
sg28
S'a'
p1194
sg22
F2.300609781173989
sg19
I102
sg24
F2.3339409636100754
sg21
I104
sa(dp1195
g30
I0
sg20
F1.499677364481613
sg27
F3.6681788985151798
sg32
g40
(g69
S'\xff\xff\xff\xff'
p1196
tp1197
Rp1198
sg39
g49
sg25
I160
sg14
I73
sg17
I61
sg37
g38
sg15
F559.6716219327645
sg31
g40
(g44
S'\xa7\xc4d\x81\x1d9\xb4?'
p1199
tp1200
Rp1201
sg50
g55
sg23
I158
sg26
I38
sg33
g40
(g69
S'\xff\xff\xff\xff'
p1202
tp1203
Rp1204
sg18
F1.4663894445402548
sg16
F1.0160203202394769
sg29
I0
sg28
g129
sg22
F2.6339670678135008
sg19
I88
sg24
F2.6673297805245966
sg21
I90
sa(dp1205
g30
I1
sg20
F1.8500679733697325
sg27
F3.584870007238351
sg32
g40
(g69
S'\xff\xff\xff\xff'
p1206
tp1207
Rp1208
sg39
g49
sg25
I191
sg14
I74
sg17
I66
sg37
g38
sg15
F563.3410884402692
sg31
g40
(g44
S'"b\t\xd7\x95\xb7\xb8?'
p1209
tp1210
Rp1211
sg50
g55
sg23
I189
sg26
I48
sg33
g40
(g69
S'\xff\xff\xff\xff'
p1212
tp1213
Rp1214
sg18
F1.8168167165713385
sg16
F1.0995887863682583
sg29
I0
sg28
S'a'
p1215
sg22
F3.151182605768554
sg19
I109
sg24
F3.1844679593341425
sg21
I111
sa(dp1216
g30
I1
sg20
F1.8166301012970507
sg27
F4.118541423464194
sg32
g40
(g69
S'\xff\xff\xff\xff'
p1217
tp1218
Rp1219
sg39
g49
sg25
I219
sg14
I75
sg17
I61
sg37
g38
sg15
F566.943991573411
sg31
g40
(g44
S'"b\t\xd7\x95\xb7\xb8?'
p1220
tp1221
Rp1222
sg50
g55
sg23
I217
sg26
I78
sg33
g40
(g69
S'\xff\xff\xff\xff'
p1223
tp1224
Rp1225
sg18
F1.783378477790393
sg16
F1.0161812712904066
sg29
I0
sg28
S'a'
p1226
sg22
F3.6181535274954513
sg19
I107
sg24
F3.651507441070862
sg21
I109
sa(dp1227
g30
I1
sg20
F1.9834297328488901
sg27
F3.3512800564058125
sg32
g40
(g69
S'\xff\xff\xff\xff'
p1228
tp1229
Rp1230
sg39
g49
sg25
I169
sg14
I76
sg17
I67
sg37
g38
sg15
F571.0805558570428
sg31
g40
(g44
S'\xc3:\xa0\xc1\xf7\x97\xb7?'
p1231
tp1232
Rp1233
sg50
g55
sg23
I167
sg26
I18
sg33
g40
(g69
S'\xff\xff\xff\xff'
p1234
tp1235
Rp1236
sg18
F1.950185808702372
sg16
F1.1162026826059446
sg29
I0
sg28
S'a'
p1237
sg22
F2.7841755342669785
sg19
I117
sg24
F2.8175972745520994
sg21
I119
sa(dp1238
g30
I0
sg20
F1.9333801644388586
sg27
F4.402036123443395
sg32
g40
(g69
S'\xff\xff\xff\xff'
p1239
tp1240
Rp1241
sg39
g49
sg25
I204
sg14
I77
sg17
I66
sg37
g38
sg15
F574.4497784813866
sg31
g40
(g44
S'\x05\xec\xcd\x96\xbbX\xb5?'
p1242
tp1243
Rp1244
sg50
g55
sg23
I202
sg26
I56
sg33
g40
(g69
S'\xff\xff\xff\xff'
p1245
tp1246
Rp1247
sg18
F1.9000973772490397
sg16
F1.099460098776035
sg29
I0
sg28
g129
sg22
F3.367901651887223
sg19
I114
sg24
F3.401261431630701
sg21
I116
sa(dp1248
g30
I1
sg20
F2.000037029851228
sg27
F3.651505241403356
sg32
g40
(g69
S'\x01\x00\x00\x00'
p1249
tp1250
Rp1251
sg39
g49
sg25
I187
sg14
I78
sg17
I68
sg37
g38
sg15
F578.8531645411858
sg31
g40
(g44
S'"b\t\xd7\x95\xb7\xb8?'
p1252
tp1253
Rp1254
sg50
g55
sg23
I185
sg26
I35
sg33
g40
(g69
S'\x01\x00\x00\x00'
p1255
tp1256
Rp1257
sg18
F1.966747276717797
sg16
F1.1327505852095783
sg29
I0
sg28
S'l'
p1258
sg22
F3.0842738648643717
sg19
I118
sg24
F3.117752433056012
sg21
I120
sa(dp1259
g30
I0
sg20
F1.6165117527125403
sg27
F4.0184188219718635
sg32
g40
(g69
S'\xff\xff\xff\xff'
p1260
tp1261
Rp1262
sg39
g49
sg25
I181
sg14
I79
sg17
I68
sg37
g38
sg15
F582.5227941996418
sg31
g40
(g44
S'\xa7\xc4d\x81\x1d9\xb4?'
p1263
tp1264
Rp1265
sg50
g55
sg23
I179
sg26
I52
sg33
g40
(g69
S'\x01\x00\x00\x00'
p1266
tp1267
Rp1268
sg18
F1.5832667285576463
sg16
F1.13290347030852
sg29
I0
sg28
g129
sg22
F2.9843609762610868
sg19
I95
sg24
F3.017752286279574
sg21
I97
sa(dp1269
g30
I1
sg20
F1.5999374527018517
sg27
F2.8343361921142787
sg32
g40
(g69
S'\x01\x00\x00\x00'
p1270
tp1271
Rp1272
sg39
g49
sg25
I139
sg14
I80
sg17
I69
sg37
g38
sg15
F586.5425068633631
sg31
g40
(g44
S'\xc3:\xa0\xc1\xf7\x97\xb7?'
p1273
tp1274
Rp1275
sg50
g55
sg23
I137
sg26
I11
sg33
g40
(g69
S'\xff\xff\xff\xff'
p1276
tp1277
Rp1278
sg18
F1.5666777634760365
sg16
F1.149648254038766
sg29
I0
sg28
S'a'
p1279
sg22
F2.283839700045064
sg19
I94
sg24
F2.317263273522258
sg21
I96
sa(dp1280
g30
I1
sg20
F1.6998499744804576
sg27
F3.1676905455533415
sg32
g40
(g69
S'\x01\x00\x00\x00'
p1281
tp1282
Rp1283
sg39
g49
sg25
I153
sg14
I81
sg17
I63
sg37
g38
sg15
F589.3948780144565
sg31
g40
(g44
S'\xa7\xc4d\x81\x1d9\xb4?'
p1284
tp1285
Rp1286
sg50
g55
sg23
I151
sg26
I19
sg33
g40
(g69
S'\x01\x00\x00\x00'
p1287
tp1288
Rp1289
sg18
F1.6666082500014454
sg16
F1.0493819329421967
sg29
I0
sg28
S'l'
p1290
sg22
F2.5172533011063933
sg19
I100
sg24
F2.5506358118727803
sg21
I102
sa(dp1291
g30
I1
sg20
F1.7498984432313591
sg27
F2.834192472626455
sg32
g40
(g69
S'\x01\x00\x00\x00'
p1292
tp1293
Rp1294
sg39
g49
sg25
I144
sg14
I82
sg17
I69
sg37
g38
sg15
F592.5807091089664
sg31
g40
(g44
S'\x05\xec\xcd\x96\xbbX\xb5?'
p1295
tp1296
Rp1297
sg50
g55
sg23
I142
sg26
I7
sg33
g40
(g69
S'\x01\x00\x00\x00'
p1298
tp1299
Rp1300
sg18
F1.7166765169240534
sg16
F1.149565028725192
sg29
I0
sg28
S'l'
p1301
sg22
F2.3671111948788166
sg19
I103
sg24
F2.4005435676081106
sg21
I105
sa(dp1302
g30
I0
sg20
F1.966725645470433
sg27
F4.719070985680446
sg32
g40
(g69
S'\x01\x00\x00\x00'
p1303
tp1304
Rp1305
sg39
g49
sg25
I223
sg14
I83
sg17
I70
sg37
g38
sg15
F595.4329508391675
sg31
g40
(g44
S'\x05\xec\xcd\x96\xbbX\xb5?'
p1306
tp1307
Rp1308
sg50
g55
sg23
I221
sg26
I73
sg33
g40
(g69
S'\x01\x00\x00\x00'
p1309
tp1310
Rp1311
sg18
F1.9334226936334744
sg16
F1.1661330959759653
sg29
I0
sg28
g129
sg22
F3.6848701538983732
sg19
I116
sg24
F3.718232133425772
sg21
I118
sa(dp1312
g30
I0
sg20
F1.6831961155403405
sg27
F3.3679647125536576
sg32
g40
(g69
S'\x01\x00\x00\x00'
p1313
tp1314
Rp1315
sg39
g49
sg25
I142
sg14
I84
sg17
I67
sg37
g38
sg15
F600.1533032011939
sg31
g40
(g44
S'\xc3:\xa0\xc1\xf7\x97\xb7?'
p1316
tp1317
Rp1318
sg50
g55
sg23
I140
sg26
I9
sg33
g40
(g69
S'\xff\xff\xff\xff'
p1319
tp1320
Rp1321
sg18
F1.649945225333795
sg16
F1.1161993829300627
sg29
I0
sg28
g129
sg22
F2.3338137426180765
sg19
I99
sg24
F2.3671705891611055
sg21
I101
sa(dp1322
g30
I1
sg20
F1.7499607703648508
sg27
F3.251186052104458
sg32
g40
(g69
S'\x01\x00\x00\x00'
p1323
tp1324
Rp1325
sg39
g49
sg25
I171
sg14
I85
sg17
I69
sg37
g38
sg15
F603.522551856353
sg31
g40
(g44
S'\xc3:\xa0\xc1\xf7\x97\xb7?'
p1326
tp1327
Rp1328
sg50
g55
sg23
I169
sg26
I34
sg33
g40
(g69
S'\x01\x00\x00\x00'
p1329
tp1330
Rp1331
sg18
F1.7167139131342992
sg16
F1.149595825583674
sg29
I0
sg28
S'l'
p1332
sg22
F2.817481419071555
sg19
I103
sg24
F2.850884094601497
sg21
I105
sa(dp1333
g30
I1
sg20
F1.599778701318428
sg27
F3.7681849112268537
sg32
g40
(g69
S'\xff\xff\xff\xff'
p1334
tp1335
Rp1336
sg39
g49
sg25
I184
sg14
I86
sg17
I68
sg37
g38
sg15
F606.7917926656082
sg31
g40
(g44
S'\x05\xec\xcd\x96\xbbX\xb5?'
p1337
tp1338
Rp1339
sg50
g55
sg23
I182
sg26
I56
sg33
g40
(g69
S'\x01\x00\x00\x00'
p1340
tp1341
Rp1342
sg18
F1.566466583753936
sg16
F1.1328074129996821
sg29
I0
sg28
S'l'
p1343
sg22
F3.0343181538628414
sg19
I94
sg24
F3.067636137478985
sg21
I96
sa(dp1344
g30
I0
sg20
F1.8165589747950435
sg27
F3.6348301176913083
sg32
g40
(g69
S'\xff\xff\xff\xff'
p1345
tp1346
Rp1347
sg39
g49
sg25
I158
sg14
I87
sg17
I68
sg37
g38
sg15
F610.5781742202817
sg31
g40
(g44
S'\xc3:\xa0\xc1\xf7\x97\xb7?'
p1348
tp1349
Rp1350
sg50
g55
sg23
I156
sg26
I17
sg33
g40
(g69
S'\x01\x00\x00\x00'
p1351
tp1352
Rp1353
sg18
F1.783253823290579
sg16
F1.1328088794834912
sg29
I0
sg28
g129
sg22
F2.600645051104948
sg19
I107
sg24
F2.6339406702900305
sg21
I109
sa(dp1354
g30
I1
sg20
F1.7832574895583093
sg27
F3.5347658107057214
sg32
g40
(g69
S'\x01\x00\x00\x00'
p1355
tp1356
Rp1357
sg39
g49
sg25
I163
sg14
I88
sg17
I66
sg37
g38
sg15
F614.2142901138868
sg31
g40
(g44
S'\xc3:\xa0\xc1\xf7\x97\xb7?'
p1358
tp1359
Rp1360
sg50
g55
sg23
I161
sg26
I24
sg33
g40
(g69
S'\xff\xff\xff\xff'
p1361
tp1362
Rp1363
sg18
F1.7500150318956003
sg16
F1.0994406674290076
sg29
I0
sg28
S'a'
p1364
sg22
F2.6840884960256517
sg19
I105
sg24
F2.717369083315134
sg21
I107
sa(dp1365
g30
I1
sg20
F1.866952076787129
sg27
F2.967802074737847
sg32
g40
(g69
S'\x01\x00\x00\x00'
p1366
tp1367
Rp1368
sg39
g49
sg25
I158
sg14
I89
sg17
I60
sg37
g38
sg15
F643.5535596964182
sg31
g40
(g44
S'\xc3:\xa0\xc1\xf7\x97\xb7?'
p1369
tp1370
Rp1371
sg50
g55
sg23
I156
sg26
I14
sg33
g40
(g69
S'\xff\xff\xff\xff'
p1372
tp1373
Rp1374
sg18
F1.8336098954314366
sg16
F0.9997004622127861
sg29
I0
sg28
S'a'
p1375
sg22
F2.6008287332952023
sg19
I110
sg24
F2.6342105108778924
sg21
I112
sa(dp1376
g30
I1
sg20
F1.48301617288962
sg27
F3.3179646391654387
sg32
g40
(g69
S'\xff\xff\xff\xff'
p1377
tp1378
Rp1379
sg39
g49
sg25
I178
sg14
I90
sg17
I62
sg37
g38
sg15
F646.5396057100734
sg31
g40
(g44
S'\xc3:\xa0\xc1\xf7\x97\xb7?'
p1380
tp1381
Rp1382
sg50
g55
sg23
I176
sg26
I57
sg33
g40
(g69
S'\xff\xff\xff\xff'
p1383
tp1384
Rp1385
sg18
F1.449781047878787
sg16
F1.0328105660155416
sg29
I0
sg28
S'a'
p1386
sg22
F2.934207651182078
sg19
I87
sg24
F2.9675648644333705
sg21
I89
sa(dp1387
g30
I1
sg20
F1.6164589577820152
sg27
F2.9842051580781117
sg32
g40
(g69
S'\xff\xff\xff\xff'
p1388
tp1389
Rp1390
sg39
g49
sg25
I145
sg14
I91
sg17
I69
sg37
g38
sg15
F649.8755550797796
sg31
g40
(g44
S'\x05\xec\xcd\x96\xbbX\xb5?'
p1391
tp1392
Rp1393
sg50
g55
sg23
I143
sg26
I16
sg33
g40
(g69
S'\x01\x00\x00\x00'
p1394
tp1395
Rp1396
sg18
F1.5831468402175233
sg16
F1.1494891359470785
sg29
I0
sg28
S'l'
p1397
sg22
F2.3837716532871127
sg19
I95
sg24
F2.4172025594161823
sg21
I97
sa(dp1398
g30
I1
sg20
F1.7999560775933787
sg27
F2.7508384856628254
sg32
g40
(g69
S'\x01\x00\x00\x00'
p1399
tp1400
Rp1401
sg39
g49
sg25
I145
sg14
I92
sg17
I63
sg37
g38
sg15
F652.8778597239871
sg31
g40
(g44
S'\xc3:\xa0\xc1\xf7\x97\xb7?'
p1402
tp1403
Rp1404
sg50
g55
sg23
I143
sg26
I5
sg33
g40
(g69
S'\xff\xff\xff\xff'
p1405
tp1406
Rp1407
sg18
F1.766753216041252
sg16
F1.049490455770865
sg29
I0
sg28
S'a'
p1408
sg22
F2.3838541453005746
sg19
I106
sg24
F2.4172520545544103
sg21
I108
sa(dp1409
g30
I1
sg20
F1.599775401642546
sg27
F2.6507133177947253
sg32
g40
(g69
S'\xff\xff\xff\xff'
p1410
tp1411
Rp1412
sg39
g49
sg25
I135
sg14
I93
sg17
I65
sg37
g38
sg15
F655.6467588329688
sg31
g40
(g44
S'\x05\xec\xcd\x96\xbbX\xb5?'
p1413
tp1414
Rp1415
sg50
g55
sg23
I133
sg26
I7
sg33
g40
(g69
S'\x01\x00\x00\x00'
p1416
tp1417
Rp1418
sg18
F1.5665278111118823
sg16
F1.0828876319574192
sg29
I0
sg28
S'l'
p1419
sg22
F2.2170644126599655
sg19
I94
sg24
F2.250468188081868
sg21
I96
sa(dp1420
g30
I0
sg20
F1.7665874988306314
sg27
F3.9349874758627266
sg32
g40
(g69
S'\xff\xff\xff\xff'
p1421
tp1422
Rp1423
sg39
g49
sg25
I176
sg14
I94
sg17
I70
sg37
g38
sg15
F658.3155019768747
sg31
g40
(g44
S'\x05\xec\xcd\x96\xbbX\xb5?'
p1424
tp1425
Rp1426
sg50
g55
sg23
I174
sg26
I38
sg33
g40
(g69
S'\x01\x00\x00\x00'
p1427
tp1428
Rp1429
sg18
F1.733333308948204
sg16
F1.1662240205332637
sg29
I0
sg28
g129
sg22
F2.900915331672877
sg19
I104
sg24
F2.9342736448161304
sg21
I106
sa(dp1430
g30
I1
sg20
F1.6999757291050628
sg27
F3.468168339575641
sg32
g40
(g69
S'\x01\x00\x00\x00'
p1431
tp1432
Rp1433
sg39
g49
sg25
I185
sg14
I95
sg17
I67
sg37
g38
sg15
F662.2517814614112
sg31
g40
(g44
S'\xa7\xc4d\x81\x1d9\xb4?'
p1434
tp1435
Rp1436
sg50
g55
sg23
I183
sg26
I51
sg33
g40
(g69
S'\xff\xff\xff\xff'
p1437
tp1438
Rp1439
sg18
F1.6667420705780387
sg16
F1.1163317367900163
sg29
I0
sg28
S'a'
p1440
sg22
F3.0511714603053406
sg19
I100
sg24
F3.084540039068088
sg21
I102
sa(dp1441
g30
I1
sg20
F1.6664044031640515
sg27
F3.4345977468183264
sg32
g40
(g69
S'\xff\xff\xff\xff'
p1442
tp1443
Rp1444
sg39
g49
sg25
I187
sg14
I96
sg17
I63
sg37
g38
sg15
F665.7379920925014
sg31
g40
(g44
S'\x05\xec\xcd\x96\xbbX\xb5?'
p1445
tp1446
Rp1447
sg50
g55
sg23
I185
sg26
I55
sg33
g40
(g69
S'\x01\x00\x00\x00'
p1448
tp1449
Rp1450
sg18
F1.6331546128494665
sg16
F1.0493672677548602
sg29
I0
sg28
S'l'
p1451
sg22
F3.0842976957792416
sg19
I98
sg24
F3.1176644414663315
sg21
I100
sa(dp1452
g30
I1
sg20
F1.7832582228584215
sg27
F3.63481215282809
sg32
g40
(g69
S'\x01\x00\x00\x00'
p1453
tp1454
Rp1455
sg39
g49
sg25
I191
sg14
I97
sg17
I67
sg37
g38
sg15
F669.1906889588572
sg31
g40
(g44
S'"b\t\xd7\x95\xb7\xb8?'
p1456
tp1457
Rp1458
sg50
g55
sg23
I189
sg26
I52
sg33
g40
(g69
S'\xff\xff\xff\xff'
p1459
tp1460
Rp1461
sg18
F1.7500109989196062
sg16
F1.1161773850908503
sg29
I0
sg28
S'a'
p1462
sg22
F3.1511807726928964
sg19
I105
sg24
F3.1844752919860184
sg21
I107
sa(dp1463
g30
I1
sg20
F1.7665896984981373
sg27
F3.034371315385215
sg32
g40
(g69
S'\x01\x00\x00\x00'
p1464
tp1465
Rp1466
sg39
g49
sg25
I157
sg14
I98
sg17
I68
sg37
g38
sg15
F672.8435404702323
sg31
g40
(g44
S'\x05\xec\xcd\x96\xbbX\xb5?'
p1467
tp1468
Rp1469
sg50
g55
sg23
I155
sg26
I19
sg33
g40
(g69
S'\xff\xff\xff\xff'
p1470
tp1471
Rp1472
sg18
F1.7333483407273889
sg16
F1.1329518656712025
sg29
I0
sg28
S'a'
p1473
sg22
F2.58401025692001
sg19
I104
sg24
F2.617450328776613
sg21
I106
sa(dp1474
g30
I0
sg20
F1.6831642185570672
sg27
F4.051794366794638
sg32
g40
(g69
S'\x01\x00\x00\x00'
p1475
tp1476
Rp1477
sg39
g49
sg25
I183
sg14
I99
sg17
I62
sg37
g38
sg15
F675.8959504109807
sg31
g40
(g44
S'\x05\xec\xcd\x96\xbbX\xb5?'
p1478
tp1479
Rp1480
sg50
g55
sg23
I181
sg26
I50
sg33
g40
(g69
S'\xff\xff\xff\xff'
p1481
tp1482
Rp1483
sg18
F1.6499224941944703
sg16
F1.0328131325077266
sg29
I0
sg28
g129
sg22
F3.017659528646618
sg19
I99
sg24
F3.0510193082736805
sg21
I101
sa(dp1484
g30
I0
sg20
F1.7999824750004336
sg27
F3.968403350096196
sg32
g40
(g69
S'\x01\x00\x00\x00'
p1485
tp1486
Rp1487
sg39
g49
sg25
I178
sg14
I100
sg17
I66
sg37
g38
sg15
F679.9490276206052
sg31
g40
(g44
S'\xa7\xc4d\x81\x1d9\xb4?'
p1488
tp1489
Rp1490
sg50
g55
sg23
I176
sg26
I38
sg33
g40
(g69
S'\x01\x00\x00\x00'
p1491
tp1492
Rp1493
sg18
F1.7666952883591875
sg16
F1.0995799872325733
sg29
I0
sg28
g129
sg22
F2.9342351484810933
sg19
I106
sg24
F2.9676528559066355
sg21
I108
sa(dp1494
g30
I0
sg20
F1.6999548309249803
sg27
F3.4680616497062147
sg32
g40
(g69
S'\xff\xff\xff\xff'
p1495
tp1496
Rp1497
sg39
g49
sg25
I148
sg14
I101
sg17
I72
sg37
g38
sg15
F683.9187248124508
sg31
g40
(g44
S'\x05\xec\xcd\x96\xbbX\xb5?'
p1498
tp1499
Rp1500
sg50
g55
sg23
I146
sg26
I14
sg33
g40
(g69
S'\xff\xff\xff\xff'
p1501
tp1502
Rp1503
sg18
F1.6666500460123643
sg16
F1.1996897566132247
sg29
I0
sg28
g129
sg22
F2.4339902388164774
sg19
I100
sg24
F2.4672719259979203
sg21
I102
sa(dp1504
g30
I0
sg20
F1.950190574862063
sg27
F4.635806090198457
sg32
g40
(g69
S'\xff\xff\xff\xff'
p1505
tp1506
Rp1507
sg39
g49
sg25
I218
sg14
I102
sg17
I68
sg37
g38
sg15
F687.388109634514
sg31
g40
(g44
S'\x05\xec\xcd\x96\xbbX\xb5?'
p1508
tp1509
Rp1510
sg50
g55
sg23
I216
sg26
I69
sg33
g40
(g69
S'\x01\x00\x00\x00'
p1511
tp1512
Rp1513
sg18
F1.9169642489869148
sg16
F1.1329426999436691
sg29
I0
sg28
g129
sg22
F3.6015234995866194
sg19
I115
sg24
F3.6349602717673406
sg21
I117
sa(dp1514
g30
I0
sg20
F1.5163579875370488
sg27
F3.0510226079495624
sg32
g40
(g69
S'\xff\xff\xff\xff'
p1515
tp1516
Rp1517
sg39
g49
sg25
I123
sg14
I103
sg17
I63
sg37
g38
sg15
F692.0252048003022
sg31
g40
(g44
S'\x05\xec\xcd\x96\xbbX\xb5?'
p1518
tp1519
Rp1520
sg50
g55
sg23
I121
sg26
I0
sg33
g40
(g69
S'\xff\xff\xff\xff'
p1521
tp1522
Rp1523
sg18
F1.4830817998154089
sg16
F1.0493742336984724
sg29
I0
sg28
g129
sg22
F2.016884470009245
sg19
I89
sg24
F2.05023985018488
sg21
I91
sa(dp1524
g30
I1
sg20
F1.916776167228818
sg27
F4.1519708631094545
sg32
g40
(g69
S'\x01\x00\x00\x00'
p1525
tp1526
Rp1527
sg39
g49
sg25
I222
sg14
I104
sg17
I72
sg37
g38
sg15
F695.0775392148644
sg31
g40
(g44
S'\xc3:\xa0\xc1\xf7\x97\xb7?'
p1528
tp1529
Rp1530
sg50
g55
sg23
I220
sg26
I75
sg33
g40
(g69
S'\xff\xff\xff\xff'
p1531
tp1532
Rp1533
sg18
F1.8835260103223845
sg16
F1.1996805908856913
sg29
I0
sg28
S'a'
p1534
sg22
F3.668263590312563
sg19
I113
sg24
F3.7016160372877494
sg21
I115
sa(dp1535
g30
I1
sg20
F1.7664998739492148
sg27
F4.402069486910477
sg32
g40
(g69
S'\x01\x00\x00\x00'
p1536
tp1537
Rp1538
sg39
g49
sg25
I204
sg14
I105
sg17
I72
sg37
g38
sg15
F699.2476311953506
sg31
g40
(g44
S'\x00\x00\x00\x00\x00\x00\x00\x00'
p1539
tp1540
Rp1541
sg50
g55
sg23
I202
sg26
F66.0
sg33
g40
(g69
S'\x01\x00\x00\x00'
p1542
tp1543
Rp1544
sg18
F1.7332519168267027
sg16
F1.1995284388540313
sg29
I0
sg28
g129
sg22
F3.3678653554525226
sg19
I104
sg24
F3.401221835403703
sg21
I106
sa(dp1545
g30
I0
sg20
F1.900025884155184
sg27
F3.9017402519239113
sg32
g40
(g69
S'\xff\xff\xff\xff'
p1546
tp1547
Rp1548
sg39
g49
sg25
I174
sg14
I106
sg17
I72
sg37
g38
sg15
F703.6509835250909
sg31
g40
(g44
S'\x05\xec\xcd\x96\xbbX\xb5?'
p1549
tp1550
Rp1551
sg50
g55
sg23
I172
sg26
I28
sg33
g40
(g69
S'\xff\xff\xff\xff'
p1552
tp1553
Rp1554
sg18
F1.8667771937325597
sg16
F1.1995918659958988
sg29
I0
sg28
g129
sg22
F2.867560684797354
sg19
I112
sg24
F2.9009164314484224
sg21
I114
sa(dp1555
g30
I0
sg20
F1.5330705075757578
sg27
F3.7516036451561376
sg32
g40
(g69
S'\xff\xff\xff\xff'
p1556
tp1557
Rp1558
sg39
g49
sg25
I165
sg14
I107
sg17
I65
sg37
g38
sg15
F707.554006619961
sg31
g40
(g44
S'\x05\xec\xcd\x96\xbbX\xb5?'
p1559
tp1560
Rp1561
sg50
g55
sg23
I163
sg26
I41
sg33
g40
(g69
S'\x01\x00\x00\x00'
p1562
tp1563
Rp1564
sg18
F1.499844548292458
sg16
F1.0827791090123355
sg29
I0
sg28
g129
sg22
F2.717531500966288
sg19
I90
sg24
F2.750839585554786
sg21
I92
sa(dp1565
g30
I1
sg20
F1.9000856450293213
sg27
F4.051832129829563
sg32
g40
(g69
S'\xff\xff\xff\xff'
p1566
tp1567
Rp1568
sg39
g49
sg25
I207
sg14
I108
sg17
I70
sg37
g38
sg15
F711.3068894416792
sg31
g40
(g44
S'"b\t\xd7\x95\xb7\xb8?'
p1569
tp1570
Rp1571
sg50
g55
sg23
I205
sg26
I61
sg33
g40
(g69
S'\x01\x00\x00\x00'
p1572
tp1573
Rp1574
sg18
F1.8668182564433664
sg16
F1.1662526177242398
sg29
I0
sg28
S'l'
p1575
sg22
F3.4180164808640257
sg19
I112
sg24
F3.451374060707167
sg21
I114
sa(dp1576
g30
I0
sg20
F1.8333532536635175
sg27
F4.668999419314787
sg32
g40
(g69
S'\x01\x00\x00\x00'
p1577
tp1578
Rp1579
sg39
g49
sg25
I220
sg14
I109
sg17
I62
sg37
g38
sg15
F715.3767983263824
sg31
g40
(g44
S'\x05\xec\xcd\x96\xbbX\xb5?'
p1580
tp1581
Rp1582
sg50
g55
sg23
I218
sg26
I78
sg33
g40
(g69
S'\x01\x00\x00\x00'
p1583
tp1584
Rp1585
sg18
F1.7999945739284158
sg16
F1.0327735362807289
sg29
I0
sg28
g129
sg22
F3.634814352612011
sg19
I108
sg24
F3.6681744989473373
sg21
I110
sa(dp1586
g30
I1
sg20
F1.8166575985960662
sg27
F4.1352814408019185
sg32
g40
(g69
S'\x01\x00\x00\x00'
p1587
tp1588
Rp1589
sg39
g49
sg25
I211
sg14
I110
sg17
I70
sg37
g38
sg15
F720.047114318586
sg31
g40
(g44
S'\xc3:\xa0\xc1\xf7\x97\xb7?'
p1590
tp1591
Rp1592
sg50
g55
sg23
I209
sg26
I70
sg33
g40
(g69
S'\x01\x00\x00\x00'
p1593
tp1594
Rp1595
sg18
F1.7834125745575875
sg16
F1.1662874476751313
sg29
I0
sg28
S'l'
p1596
sg22
F3.484736406709999
sg19
I107
sg24
F3.518093253369443
sg21
I109
sa(dp1597
g30
I1
sg20
F1.9166562787722796
sg27
F3.501275876769796
sg32
g40
(g69
S'\xff\xff\xff\xff'
p1598
tp1599
Rp1600
sg39
g49
sg25
I181
sg14
I111
sg17
I64
sg37
g38
sg15
F724.2004237524234
sg31
g40
(g44
S'\xc3:\xa0\xc1\xf7\x97\xb7?'
p1601
tp1602
Rp1603
sg50
g55
sg23
I179
sg26
I34
sg33
g40
(g69
S'\xff\xff\xff\xff'
p1604
tp1605
Rp1606
sg18
F1.883366892230697
sg16
F1.0661296495236456
sg29
I0
sg28
S'a'
p1607
sg22
F2.984210290829651
sg19
I113
sg24
F3.017590601928532
sg21
I115
sa(dp1608
g30
I1
sg20
F1.7831757308449596
sg27
F3.4179273894988
sg32
g40
(g69
S'\x01\x00\x00\x00'
p1609
tp1610
Rp1611
sg39
g49
sg25
I184
sg14
I112
sg17
I72
sg37
g38
sg15
F727.7198819740443
sg31
g40
(g44
S'\xc3:\xa0\xc1\xf7\x97\xb7?'
p1612
tp1613
Rp1614
sg50
g55
sg23
I182
sg26
I45
sg33
g40
(g69
S'\xff\xff\xff\xff'
p1615
tp1616
Rp1617
sg18
F1.7499629702651873
sg16
F1.1995093740988523
sg29
I0
sg28
S'a'
p1618
sg22
F3.034304221859202
sg19
I105
sg24
F3.0676189059158787
sg21
I107
sa(dp1619
g30
I1
sg20
F1.9166911088395864
sg27
F3.484766103909351
sg32
g40
(g69
S'\xff\xff\xff\xff'
p1620
tp1621
Rp1622
sg39
g49
sg25
I178
sg14
I113
sg17
I71
sg37
g38
sg15
F731.1558545882581
sg31
g40
(g44
S'\xc3:\xa0\xc1\xf7\x97\xb7?'
p1623
tp1624
Rp1625
sg50
g55
sg23
I176
sg26
I31
sg33
g40
(g69
S'\xff\xff\xff\xff'
p1626
tp1627
Rp1628
sg18
F1.883508778642863
sg16
F1.1829640378709882
sg29
I0
sg28
S'a'
p1629
sg22
F2.9343330390984192
sg19
I113
sg24
F2.9676491896389052
sg21
I115
sa(dp1630
g30
I1
sg20
F1.8666606050683185
sg27
F4.11853482411243
sg32
g40
(g69
S'\x01\x00\x00\x00'
p1631
tp1632
Rp1633
sg39
g49
sg25
I216
sg14
I114
sg17
I66
sg37
g38
sg15
F734.6585991899483
sg31
g40
(g44
S'\xc3:\xa0\xc1\xf7\x97\xb7?'
p1634
tp1635
Rp1636
sg50
g55
sg23
I214
sg26
I72
sg33
g40
(g69
S'\xff\xff\xff\xff'
p1637
tp1638
Rp1639
sg18
F1.8334086149698123
sg16
F1.0995055610546842
sg29
I0
sg28
S'a'
p1640
sg22
F3.5680995595175773
sg19
I110
sg24
F3.6014681382803246
sg21
I112
sa(dp1641
g30
I0
sg20
F1.7498896439792588
sg27
F3.8016055517364293
sg32
g40
(g69
S'\x01\x00\x00\x00'
p1642
tp1643
Rp1644
sg39
g49
sg25
I168
sg14
I115
sg17
I70
sg37
g38
sg15
F738.7951818051515
sg31
g40
(g44
S'\x05\xec\xcd\x96\xbbX\xb5?'
p1645
tp1646
Rp1647
sg50
g55
sg23
I166
sg26
I31
sg33
g40
(g69
S'\xff\xff\xff\xff'
p1648
tp1649
Rp1650
sg18
F1.716639120480977
sg16
F1.1662108218297362
sg29
I0
sg28
g129
sg22
F2.7674564148765057
sg19
I103
sg24
F2.800816561211832
sg21
I105
sa(dp1651
g30
I1
sg20
F1.9334369922289625
sg27
F3.734994148602709
sg32
g40
(g69
S'\xff\xff\xff\xff'
p1652
tp1653
Rp1654
sg39
g49
sg25
I200
sg14
I116
sg17
I72
sg37
g38
sg15
F742.5980687331175
sg31
g40
(g44
S'\xc3:\xa0\xc1\xf7\x97\xb7?'
p1655
tp1656
Rp1657
sg50
g55
sg23
I198
sg26
I52
sg33
g40
(g69
S'\xff\xff\xff\xff'
p1658
tp1659
Rp1660
sg18
F1.9001927013741806
sg16
F1.1996442943345755
sg29
I0
sg28
S'a'
p1661
sg22
F3.301285482593812
sg19
I114
sg24
F3.3346452622208744
sg21
I116
sa(dp1662
g30
I1
sg20
F1.7498958767391741
sg27
F3.684839356923476
sg32
g40
(g69
S'\x01\x00\x00\x00'
p1663
tp1664
Rp1665
sg39
g49
sg25
I202
sg14
I117
sg17
I61
sg37
g38
sg15
F746.3510912413476
sg31
g40
(g44
S'"b\t\xd7\x95\xb7\xb8?'
p1666
tp1667
Rp1668
sg50
g55
sg23
I200
sg26
I65
sg33
g40
(g69
S'\xff\xff\xff\xff'
p1669
tp1670
Rp1671
sg18
F1.7166508527006954
sg16
F1.0161020789528266
sg29
I0
sg28
S'a'
p1672
sg22
F3.334580368595198
sg19
I103
sg24
F3.367941248114221
sg21
I105
sa(dp1673
g30
I1
sg20
F1.8500089457957074
sg27
F4.318783326772973
sg32
g40
(g69
S'\x01\x00\x00\x00'
p1674
tp1675
Rp1676
sg39
g49
sg25
I199
sg14
I118
sg17
I61
sg37
g38
sg15
F750.0539604243822
sg31
g40
(g44
S'\x00\x00\x00\x00\x00\x00\x00\x00'
p1677
tp1678
Rp1679
sg50
g55
sg23
I197
sg26
F56.0
sg33
g40
(g69
S'\x01\x00\x00\x00'
p1680
tp1681
Rp1682
sg18
F1.8167631884571165
sg16
F1.0161413084715605
sg29
I0
sg28
g129
sg22
F3.28461145889014
sg19
I109
sg24
F3.31793787505012
sg21
I111
sa(dp1683
g30
I0
sg20
F1.9667608420131728
sg27
F4.035063881776296
sg32
g40
(g69
S'\xff\xff\xff\xff'
p1684
tp1685
Rp1686
sg39
g49
sg25
I182
sg14
I119
sg17
I71
sg37
g38
sg15
F754.3740097290138
sg31
g40
(g44
S'\x05\xec\xcd\x96\xbbX\xb5?'
p1687
tp1688
Rp1689
sg50
g55
sg23
I180
sg26
I32
sg33
g40
(g69
S'\xff\xff\xff\xff'
p1690
tp1691
Rp1692
sg18
F1.933494919911027
sg16
F1.1828775128815323
sg29
I0
sg28
g129
sg22
F3.000953241251409
sg19
I116
sg24
F3.0343141208868474
sg21
I118
sa(dp1693
g30
I0
sg20
F1.6832393779186532
sg27
F4.201925474102609
sg32
g40
(g69
S'\xff\xff\xff\xff'
p1694
tp1695
Rp1696
sg39
g49
sg25
I192
sg14
I120
sg17
I70
sg37
g38
sg15
F758.4103652527556
sg31
g40
(g44
S'\xc3:\xa0\xc1\xf7\x97\xb7?'
p1697
tp1698
Rp1699
sg50
g55
sg23
I190
sg26
I59
sg33
g40
(g69
S'\xff\xff\xff\xff'
p1700
tp1701
Rp1702
sg18
F1.649987387820147
sg16
F1.1662280533928424
sg29
I0
sg28
g129
sg22
F3.1678529632044956
sg19
I99
sg24
F3.2013157663168386
sg21
I101
sa(dp1703
g30
I0
sg20
F1.6332561696181074
sg27
F3.184506088960916
sg32
g40
(g69
S'\xff\xff\xff\xff'
p1704
tp1705
Rp1706
sg39
g49
sg25
I131
sg14
I121
sg17
I68
sg37
g38
sg15
F762.6136380968383
sg31
g40
(g44
S'\xc3:\xa0\xc1\xf7\x97\xb7?'
p1707
tp1708
Rp1709
sg50
g55
sg23
I129
sg26
I1
sg33
g40
(g69
S'\xff\xff\xff\xff'
p1710
tp1711
Rp1712
sg18
F1.600089238025248
sg16
F1.1329830293543637
sg29
I0
sg28
g129
sg22
F2.1503807832486928
sg19
I96
sg24
F2.183740562875755
sg21
I98
sa(dp1713
g30
I1
sg20
F1.8667856262763962
sg27
F3.95189504371956
sg32
g40
(g69
S'\xff\xff\xff\xff'
p1714
tp1715
Rp1716
sg39
g49
sg25
I213
sg14
I122
sg17
I61
sg37
g38
sg15
F765.7994805568596
sg31
g40
(g44
S'\xc3:\xa0\xc1\xf7\x97\xb7?'
p1717
tp1718
Rp1719
sg50
g55
sg23
I211
sg26
I69
sg33
g40
(g69
S'\xff\xff\xff\xff'
p1720
tp1721
Rp1722
sg18
F1.8335702993208542
sg16
F1.0162424987647682
sg29
I0
sg28
S'a'
p1723
sg22
F3.5181372491642833
sg19
I110
sg24
F3.5516469810390845
sg21
I112
sa(dp1724
g30
I1
sg20
F1.9665467293234542
sg27
F3.8014292019652203
sg32
g40
(g69
S'\x01\x00\x00\x00'
p1725
tp1726
Rp1727
sg39
g49
sg25
I204
sg14
I123
sg17
I70
sg37
g38
sg15
F769.7694127593422
sg31
g40
(g44
S'\xa7\xc4d\x81\x1d9\xb4?'
p1728
tp1729
Rp1730
sg50
g55
sg23
I202
sg26
I54
sg33
g40
(g69
S'\x01\x00\x00\x00'
p1731
tp1732
Rp1733
sg18
F1.933300238684751
sg16
F1.1660271395230666
sg29
I0
sg28
S'l'
p1734
sg22
F3.3676890056813136
sg19
I116
sg24
F3.40105281828437
sg21
I118
sa(dp1735
g30
I0
sg20
F1.7162281267810613
sg27
F4.301665312610567
sg32
g40
(g69
S'\xff\xff\xff\xff'
p1736
tp1737
Rp1738
sg39
g49
sg25
I198
sg14
I124
sg17
I63
sg37
g38
sg15
F773.5893726059003
sg31
g40
(g44
S'\xa7\xc4d\x81\x1d9\xb4?'
p1739
tp1740
Rp1741
sg50
g55
sg23
I196
sg26
I63
sg33
g40
(g69
S'\x01\x00\x00\x00'
p1742
tp1743
Rp1744
sg18
F1.6829823694424704
sg16
F1.0491476556053385
sg29
I0
sg28
g129
sg22
F3.2675407400820404
sg19
I101
sg24
F3.3008517577545717
sg21
I103
sa(dp1745
g30
I1
sg20
F1.5830749805318192
sg27
F3.684892518329434
sg32
g40
(g69
S'\xff\xff\xff\xff'
p1746
tp1747
Rp1748
sg39
g49
sg25
I161
sg14
I125
sg17
I66
sg37
g38
sg15
F777.8923449589638
sg31
g40
(g44
S'\x00\x00\x00\x00\x00\x00\x00\x00'
p1749
tp1750
Rp1751
sg50
g55
sg23
I159
sg26
F34.0
sg33
g40
(g69
S'\xff\xff\xff\xff'
p1752
tp1753
Rp1754
sg18
F1.549835822544992
sg16
F1.0994692646199837
sg29
I0
sg28
g129
sg22
F2.6507591467816383
sg19
I93
sg24
F2.684047433314845
sg21
I95
sa(dp1755
g30
I1
sg20
F1.9333566999994218
sg27
F4.368648846400902
sg32
g40
(g69
S'\x01\x00\x00\x00'
p1756
tp1757
Rp1758
sg39
g49
sg25
I202
sg14
I126
sg17
I64
sg37
g38
sg15
F781.5786416751798
sg31
g40
(g44
S'\x00\x00\x00\x00\x00\x00\x00\x00'
p1759
tp1760
Rp1761
sg50
g55
sg23
I200
sg26
F54.0
sg33
g40
(g69
S'\x01\x00\x00\x00'
p1762
tp1763
Rp1764
sg18
F1.9000445823185146
sg16
F1.066089320112951
sg29
I0
sg28
g129
sg22
F3.3345242738723755
sg19
I114
sg24
F3.3679566466016695
sg21
I116
sa(dp1765
g30
I0
sg20
F1.8166784966597334
sg27
F4.035213467432186
sg32
g40
(g69
S'\x01\x00\x00\x00'
p1766
tp1767
Rp1768
sg39
g49
sg25
I182
sg14
I127
sg17
I60
sg37
g38
sg15
F785.9485832634382
sg31
g40
(g44
S'"b\t\xd7\x95\xb7\xb8?'
p1769
tp1770
Rp1771
sg50
g55
sg23
I180
sg26
I41
sg33
g40
(g69
S'\xff\xff\xff\xff'
p1772
tp1773
Rp1774
sg18
F1.78339937585406
sg16
F0.9994295217329636
sg29
I0
sg28
g129
sg22
F3.001002369914204
sg19
I107
sg24
F3.0343548170058057
sg21
I109
sa(dp1775
g30
I1
sg20
F1.6332048412878066
sg27
F3.8516628195066005
sg32
g40
(g69
S'\x01\x00\x00\x00'
p1776
tp1777
Rp1778
sg39
g49
sg25
I171
sg14
I128
sg17
I65
sg37
g38
sg15
F789.9851345684147
sg31
g40
(g44
S'\x00\x00\x00\x00\x00\x00\x00\x00'
p1779
tp1780
Rp1781
sg50
g55
sg23
I169
sg26
F41.0
sg33
g40
(g69
S'\x01\x00\x00\x00'
p1782
tp1783
Rp1784
sg18
F1.5999121550703421
sg16
F1.0829008306609467
sg29
I0
sg28
g129
sg22
F2.8175587783334777
sg19
I96
sg24
F2.8509486217517406
sg21
I98
sa(dp1785
g30
I1
sg20
F1.883468815824017
sg27
F2.9677195828408003
sg32
g40
(g69
S'\xff\xff\xff\xff'
p1786
tp1787
Rp1788
sg39
g49
sg25
I149
sg14
I129
sg17
I68
sg37
g38
sg15
F793.8380846303189
sg31
g40
(g44
S'\x05\xec\xcd\x96\xbbX\xb5?'
p1789
tp1790
Rp1791
sg50
g55
sg23
I147
sg26
I4
sg33
g40
(g69
S'\x01\x00\x00\x00'
p1792
tp1793
Rp1794
sg18
F1.8502366238972172
sg16
F1.1330046606017277
sg29
I0
sg28
S'l'
p1795
sg22
F2.450631632353179
sg19
I111
sg24
F2.4840211091795936
sg21
I113
sa(dp1796
g30
I0
sg20
F1.9666167559335008
sg27
F4.168480269378051
sg32
g40
(g69
S'\xff\xff\xff\xff'
p1797
tp1798
Rp1799
sg39
g49
sg25
I190
sg14
I130
sg17
I66
sg37
g38
sg15
F796.8240089223254
sg31
g40
(g44
S'\xc3:\xa0\xc1\xf7\x97\xb7?'
p1800
tp1801
Rp1802
sg50
g55
sg23
I188
sg26
I40
sg33
g40
(g69
S'\x01\x00\x00\x00'
p1803
tp1804
Rp1805
sg18
F1.9334322259528562
sg16
F1.0993460763711482
sg29
I0
sg28
g129
sg22
F3.1343406649539247
sg19
I116
sg24
F3.1676964117214084
sg21
I118
sa(dp1806
g30
I0
sg20
F1.6999229341745377
sg27
F3.6682430589571595
sg32
g40
(g69
S'\x01\x00\x00\x00'
p1807
tp1808
Rp1809
sg39
g49
sg25
I160
sg14
I131
sg17
I63
sg37
g38
sg15
F800.9937757009175
sg31
g40
(g44
S'\x05\xec\xcd\x96\xbbX\xb5?'
p1810
tp1811
Rp1812
sg50
g55
sg23
I158
sg26
I26
sg33
g40
(g69
S'\x01\x00\x00\x00'
p1813
tp1814
Rp1815
sg18
F1.6667068739188835
sg16
F1.0495267524383962
sg29
I0
sg28
g129
sg22
F2.634106021025218
sg19
I100
sg24
F2.6674595680087805
sg21
I102
sa(dp1816
g30
I0
sg20
F1.7833051516208798
sg27
F3.8183481354499236
sg32
g40
(g69
S'\x01\x00\x00\x00'
p1817
tp1818
Rp1819
sg39
g49
sg25
I169
sg14
I132
sg17
I66
sg37
g38
sg15
F804.663306735456
sg31
g40
(g44
S'\xa7\xc4d\x81\x1d9\xb4?'
p1820
tp1821
Rp1822
sg50
g55
sg23
I167
sg26
I30
sg33
g40
(g69
S'\xff\xff\xff\xff'
p1823
tp1824
Rp1825
sg18
F1.7500604941742495
sg16
F1.099546623765491
sg29
I0
sg28
g129
sg22
F2.7841953323222697
sg19
I105
sg24
F2.8176013075280935
sg21
I107
sa(dp1826
g30
I1
sg20
F1.6669052214128897
sg27
F4.0187007614877075
sg32
g40
(g69
S'\x01\x00\x00\x00'
p1827
tp1828
Rp1829
sg39
g49
sg25
I181
sg14
I133
sg17
I68
sg37
g38
sg15
F815.454772365978
sg31
g40
(g44
S'\x00\x00\x00\x00\x00\x00\x00\x00'
p1830
tp1831
Rp1832
sg50
g55
sg23
I179
sg26
F49.0
sg33
g40
(g69
S'\x01\x00\x00\x00'
p1833
tp1834
Rp1835
sg18
F1.6334812813438475
sg16
F1.1331920091761276
sg29
I0
sg28
g129
sg22
F2.9844892972614616
sg19
I98
sg24
F3.0178479771129787
sg21
I100
sa(dp1836
g30
I0
sg20
F1.5831600389210507
sg27
F4.085238838219084
sg32
g40
(g69
S'\x01\x00\x00\x00'
p1837
tp1838
Rp1839
sg39
g49
sg25
I185
sg14
I134
sg17
I60
sg37
g38
sg15
F819.4748897906393
sg31
g40
(g44
S'\x05\xec\xcd\x96\xbbX\xb5?'
p1840
tp1841
Rp1842
sg50
g55
sg23
I183
sg26
I58
sg33
g40
(g69
S'\x01\x00\x00\x00'
p1843
tp1844
Rp1845
sg18
F1.5498567204922438
sg16
F0.9994214558973908
sg29
I0
sg28
g129
sg22
F3.051060004392639
sg19
I93
sg24
F3.0844238169956952
sg21
I95
sa(dp1846
g30
I1
sg20
F1.7499838682124391
sg27
F2.8842651390004903
sg32
g40
(g69
S'\x01\x00\x00\x00'
p1847
tp1848
Rp1849
sg39
g49
sg25
I143
sg14
I135
sg17
I63
sg37
g38
sg15
F823.5614169712644
sg31
g40
(g44
S'"b\t\xd7\x95\xb7\xb8?'
p1850
tp1851
Rp1852
sg50
g55
sg23
I141
sg26
I6
sg33
g40
(g69
S'\x01\x00\x00\x00'
p1853
tp1854
Rp1855
sg18
F1.716680916491896
sg16
F1.0495340849738568
sg29
I0
sg28
S'l'
p1856
sg22
F2.3505709916353226
sg19
I103
sg24
F2.3839120730990544
sg21
I105
sa(dp1857
g30
I1
sg20
F1.7165654276032
sg27
F3.067576010012999
sg32
g40
(g69
S'\xff\xff\xff\xff'
p1858
tp1859
Rp1860
sg39
g49
sg25
I147
sg14
I136
sg17
I69
sg37
g38
sg15
F826.4637643645983
sg31
g40
(g44
S'\x05\xec\xcd\x96\xbbX\xb5?'
p1861
tp1862
Rp1863
sg50
g55
sg23
I145
sg26
I12
sg33
g40
(g69
S'\x01\x00\x00\x00'
p1864
tp1865
Rp1866
sg18
F1.68319501564838
sg16
F1.14940957701765
sg29
I0
sg28
S'l'
p1867
sg22
F2.416980014182627
sg19
I101
sg24
F2.450347126577981
sg21
I103
sa(dp1868
g30
I0
sg20
F1.533127335482277
sg27
F3.284545831847936
sg32
g40
(g69
S'\x01\x00\x00\x00'
p1869
tp1870
Rp1871
sg39
g49
sg25
I137
sg14
I137
sg17
I63
sg37
g38
sg15
F829.5494688246399
sg31
g40
(g44
S'\x05\xec\xcd\x96\xbbX\xb5?'
p1872
tp1873
Rp1874
sg50
g55
sg23
I135
sg26
I13
sg33
g40
(g69
S'\xff\xff\xff\xff'
p1875
tp1876
Rp1877
sg18
F1.4998812115518376
sg16
F1.0495645153569058
sg29
I0
sg28
g129
sg22
F2.250470754574053
sg19
I90
sg24
F2.2838265013415366
sg21
I92
sa(dp1878
g30
I1
sg20
F1.6165480492636561
sg27
F3.3346701932605356
sg32
g40
(g69
S'\xff\xff\xff\xff'
p1879
tp1880
Rp1881
sg39
g49
sg25
I140
sg14
I138
sg17
I65
sg37
g38
sg15
F832.8353037320776
sg31
g40
(g44
S'\x00\x00\x00\x00\x00\x00\x00\x00'
p1882
tp1883
Rp1884
sg50
g55
sg23
I138
sg26
F11.0
sg33
g40
(g69
S'\xff\xff\xff\xff'
p1885
tp1886
Rp1887
sg18
F1.5832989922491834
sg16
F1.0829140293644741
sg29
I0
sg28
g129
sg22
F2.300533155212179
sg19
I95
sg24
F2.3339178658789024
sg21
I97
sa(dp1888
g30
I1
sg20
F1.5665336772799492
sg27
F3.4513095336733386
sg32
g40
(g69
S'\xff\xff\xff\xff'
p1889
tp1890
Rp1891
sg39
g49
sg25
I147
sg14
I139
sg17
I64
sg37
g38
sg15
F836.171304796706
sg31
g40
(g44
S'\x00\x00\x00\x00\x00\x00\x00\x00'
p1892
tp1893
Rp1894
sg50
g55
sg23
I145
sg26
F21.0
sg33
g40
(g69
S'\xff\xff\xff\xff'
p1895
tp1896
Rp1897
sg18
F1.5332442908547819
sg16
F1.0662110417615622
sg29
I0
sg28
g129
sg22
F2.4173033830011263
sg19
I92
sg24
F2.4506312657613307
sg21
I94
sa(dp1898
g30
I0
sg20
F1.5666172691853717
sg27
F3.318027699715458
sg32
g40
(g69
S'\xff\xff\xff\xff'
p1899
tp1900
Rp1901
sg39
g49
sg25
I139
sg14
I140
sg17
I64
sg37
g38
sg15
F839.6239085387206
sg31
g40
(g44
S'\x05\xec\xcd\x96\xbbX\xb5?'
p1902
tp1903
Rp1904
sg50
g55
sg23
I137
sg26
I13
sg33
g40
(g69
S'\x01\x00\x00\x00'
p1905
tp1906
Rp1907
sg18
F1.5332893864251673
sg16
F1.0662612701999024
sg29
I0
sg28
g129
sg22
F2.2838792961556464
sg19
I92
sg24
F2.3172376092988998
sg21
I94
sa(dp1908
g30
I0
sg20
F1.8667306315619498
sg27
F3.5181676795473322
sg32
g40
(g69
S'\xff\xff\xff\xff'
p1909
tp1910
Rp1911
sg39
g49
sg25
I151
sg14
I141
sg17
I66
sg37
g38
sg15
F842.9432759091724
sg31
g40
(g44
S'\xc3:\xa0\xc1\xf7\x97\xb7?'
p1912
tp1913
Rp1914
sg50
g55
sg23
I149
sg26
I7
sg33
g40
(g69
S'\xff\xff\xff\xff'
p1915
tp1916
Rp1917
sg18
F1.8335508678574115
sg16
F1.0995730211725459
sg29
I0
sg28
g129
sg22
F2.4839906786801293
sg19
I110
sg24
F2.517390421242453
sg21
I112
sa(dp1918
g30
I0
sg20
F1.9000662135658786
sg27
F4.2185917985625565
sg32
g40
(g69
S'\xff\xff\xff\xff'
p1919
tp1920
Rp1921
sg39
g49
sg25
I193
sg14
I142
sg17
I72
sg37
g38
sg15
F846.4627220319817
sg31
g40
(g44
S'\x05\xec\xcd\x96\xbbX\xb5?'
p1922
tp1923
Rp1924
sg50
g55
sg23
I191
sg26
I47
sg33
g40
(g69
S'\x01\x00\x00\x00'
p1925
tp1926
Rp1927
sg18
F1.8668259556870908
sg16
F1.1996692252578214
sg29
I0
sg28
g129
sg22
F3.184446694678627
sg19
I112
sg24
F3.217806841013953
sg21
I114
sa(dp1928
g30
I1
sg20
F1.750039229518734
sg27
F3.318048231070861
sg32
g40
(g69
S'\xff\xff\xff\xff'
p1929
tp1930
Rp1931
sg39
g49
sg25
I170
sg14
I143
sg17
I71
sg37
g38
sg15
F850.6825970399659
sg31
g40
(g44
S'\xa7\xc4d\x81\x1d9\xb4?'
p1932
tp1933
Rp1934
sg50
g55
sg23
I168
sg26
I33
sg33
g40
(g69
S'\x01\x00\x00\x00'
p1935
tp1936
Rp1937
sg18
F1.716823169379495
sg16
F1.1830534959444776
sg29
I0
sg28
S'l'
p1938
sg22
F2.8010530383326113
sg19
I103
sg24
F2.8343369252979755
sg21
I105
sa(dp1939
g30
I1
sg20
F1.6497729086549953
sg27
F4.3687485702103
sg32
g40
(g69
S'\x01\x00\x00\x00'
p1940
tp1941
Rp1942
sg39
g49
sg25
I202
sg14
I144
sg17
I71
sg37
g38
sg15
F854.0187363247387
sg31
g40
(g44
S'\x00\x00\x00\x00\x00\x00\x00\x00'
p1943
tp1944
Rp1945
sg50
g55
sg23
I200
sg26
F71.0
sg33
g40
(g69
S'\x01\x00\x00\x00'
p1946
tp1947
Rp1948
sg18
F1.6165238515241072
sg16
F1.182856248342432
sg29
I0
sg28
g129
sg22
F3.334535272908397
sg19
I97
sg24
F3.3679203500505537
sg21
I99
sa(dp1949
g30
I0
sg20
F1.866556848399341
sg27
F3.9015217397827655
sg32
g40
(g69
S'\x01\x00\x00\x00'
p1950
tp1951
Rp1952
sg39
g49
sg25
I174
sg14
I145
sg17
I61
sg37
g38
sg15
F858.3887659044703
sg31
g40
(g44
S'\x05\xec\xcd\x96\xbbX\xb5?'
p1953
tp1954
Rp1955
sg50
g55
sg23
I172
sg26
I30
sg33
g40
(g69
S'\x01\x00\x00\x00'
p1956
tp1957
Rp1958
sg18
F1.8333140240283683
sg16
F1.0160346187185496
sg29
I0
sg28
g129
sg22
F2.867411099257879
sg19
I110
sg24
F2.900750347529538
sg21
I112
sa(dp1959
g30
I1
sg20
F1.7333113109925762
sg27
F3.1512167025357485
sg32
g40
(g69
S'\x01\x00\x00\x00'
p1960
tp1961
Rp1962
sg39
g49
sg25
I164
sg14
I146
sg17
I64
sg37
g38
sg15
F862.2916867091553
sg31
g40
(g44
S'\xc3:\xa0\xc1\xf7\x97\xb7?'
p1963
tp1964
Rp1965
sg50
g55
sg23
I162
sg26
I28
sg33
g40
(g69
S'\x01\x00\x00\x00'
p1966
tp1967
Rp1968
sg18
F1.7000076258555055
sg16
F1.0661699790507555
sg29
I0
sg28
S'l'
p1969
sg22
F2.7007984495721757
sg19
I102
sg24
F2.734206257853657
sg21
I104
sa(dp1970
g30
I0
sg20
F1.8666430067969486
sg27
F3.8682778156362474
sg32
g40
(g69
S'\x01\x00\x00\x00'
p1971
tp1972
Rp1973
sg39
g49
sg25
I172
sg14
I147
sg17
I66
sg37
g38
sg15
F865.4609779670136
sg31
g40
(g44
S'\xc3:\xa0\xc1\xf7\x97\xb7?'
p1974
tp1975
Rp1976
sg50
g55
sg23
I170
sg26
I28
sg33
g40
(g69
S'\xff\xff\xff\xff'
p1977
tp1978
Rp1979
sg18
F1.833330522524193
sg16
F1.0994787970557809
sg29
I0
sg28
g129
sg22
F2.8341129136970267
sg19
I110
sg24
F2.8675001906231046
sg21
I112
sa(dp1980
g30
I1
sg20
F1.766646892996505
sg27
F3.134536446072161
sg32
g40
(g69
S'\xff\xff\xff\xff'
p1981
tp1982
Rp1983
sg39
g49
sg25
I165
sg14
I148
sg17
I64
sg37
g38
sg15
F869.3305459580151
sg31
g40
(g44
S'\x05\xec\xcd\x96\xbbX\xb5?'
p1984
tp1985
Rp1986
sg50
g55
sg23
I163
sg26
I27
sg33
g40
(g69
S'\x01\x00\x00\x00'
p1987
tp1988
Rp1989
sg18
F1.7333736383588985
sg16
F1.0661604466149583
sg29
I0
sg28
S'l'
p1990
sg22
F2.7176073936279863
sg19
I104
sg24
F2.7509033794049174
sg21
I106
sa(dp1991
g30
I0
sg20
F1.8333532536635175
sg27
F4.2686406339053065
sg32
g40
(g69
S'\x01\x00\x00\x00'
p1992
tp1993
Rp1994
sg39
g49
sg25
I196
sg14
I149
sg17
I69
sg37
g38
sg15
F872.4831422939897
sg31
g40
(g44
S'\xc3:\xa0\xc1\xf7\x97\xb7?'
p1995
tp1996
Rp1997
sg50
g55
sg23
I194
sg26
I54
sg33
g40
(g69
S'\xff\xff\xff\xff'
p1998
tp1999
Rp2000
sg18
F1.800021337927319
sg16
F1.1494451402686536
sg29
I0
sg28
g129
sg22
F3.234566656523384
sg19
I108
sg24
F3.2678578761406243
sg21
I110
sa(dp2001
g30
I0
sg20
F1.8167477899696678
sg27
F4.151881038444117
sg32
g40
(g69
S'\x01\x00\x00\x00'
p2002
tp2003
Rp2004
sg39
g49
sg25
I189
sg14
I150
sg17
I64
sg37
g38
sg15
F876.7530811692122
sg31
g40
(g44
S'\xc3:\xa0\xc1\xf7\x97\xb7?'
p2005
tp2006
Rp2007
sg50
g55
sg23
I187
sg26
I48
sg33
g40
(g69
S'\xff\xff\xff\xff'
p2008
tp2009
Rp2010
sg18
F1.783341814763844
sg16
F1.0661916104145348
sg29
I0
sg28
g129
sg22
F3.1177916625747457
sg19
I107
sg24
F3.1510975474957377
sg21
I109
sa(dp2011
g30
I1
sg20
F1.8167202926706523
sg27
F3.434790228260681
sg32
g40
(g69
S'\xff\xff\xff\xff'
p2012
tp2013
Rp2014
sg39
g49
sg25
I183
sg14
I151
sg17
I60
sg37
g38
sg15
F880.9062641153578
sg31
g40
(g44
S'\xc3:\xa0\xc1\xf7\x97\xb7?'
p2015
tp2016
Rp2017
sg50
g55
sg23
I181
sg26
I42
sg33
g40
(g69
S'\xff\xff\xff\xff'
p2018
tp2019
Rp2020
sg18
F1.7834092748817056
sg16
F0.9995989054441452
sg29
I0
sg28
S'a'
p2021
sg22
F3.017798848450184
sg19
I107
sg24
F3.0511784262489527
sg21
I109
sa(dp2022
g30
I1
sg20
F1.5830661812797189
sg27
F2.967547632753849
sg32
g40
(g69
S'\xff\xff\xff\xff'
p2023
tp2024
Rp2025
sg39
g49
sg25
I128
sg14
I152
sg17
I67
sg37
g38
sg15
F884.3591336649843
sg31
g40
(g44
S'\x05\xec\xcd\x96\xbbX\xb5?'
p2026
tp2027
Rp2028
sg50
g55
sg23
I126
sg26
I1
sg33
g40
(g69
S'\x01\x00\x00\x00'
p2029
tp2030
Rp2031
sg18
F1.5498160243732855
sg16
F1.1161495209671557
sg29
I0
sg28
S'l'
p2032
sg22
F2.1001801625825465
sg19
I93
sg24
F2.1335403089178726
sg21
I95
sa(dp2033
g30
I0
sg20
F1.933258809382096
sg27
F3.63467503269203
sg32
g40
(g69
S'\x01\x00\x00\x00'
p2034
tp2035
Rp2036
sg39
g49
sg25
I158
sg14
I153
sg17
I65
sg37
g38
sg15
F887.3448035150068
sg31
g40
(g44
S'\x05\xec\xcd\x96\xbbX\xb5?'
p2037
tp2038
Rp2039
sg50
g55
sg23
I156
sg26
I10
sg33
g40
(g69
S'\x01\x00\x00\x00'
p2040
tp2041
Rp2042
sg18
F1.8999855547444895
sg16
F1.0826562875881791
sg29
I0
sg28
g129
sg22
F2.6005060977768153
sg19
I114
sg24
F2.633907306822948
sg21
I116
sa(dp2043
g30
I0
sg20
F2.0502310510491952
sg27
F3.634875213378109
sg32
g40
(g69
S'\x01\x00\x00\x00'
p2044
tp2045
Rp2046
sg39
g49
sg25
I158
sg14
I154
sg17
I72
sg37
g38
sg15
F890.9808024532394
sg31
g40
(g44
S'\x05\xec\xcd\x96\xbbX\xb5?'
p2047
tp2048
Rp2049
sg50
g55
sg23
I156
sg26
I3
sg33
g40
(g69
S'\x01\x00\x00\x00'
p2050
tp2051
Rp2052
sg18
F2.016939098131843
sg16
F1.1996464941184968
sg29
I0
sg28
g129
sg22
F2.600741108530201
sg19
I121
sg24
F2.6341639487072825
sg21
I123
sa(dp2053
g30
I1
sg20
F1.699999193311669
sg27
F3.7849813897628337
sg32
g40
(g69
S'\xff\xff\xff\xff'
p2054
tp2055
Rp2056
sg39
g49
sg25
I195
sg14
I155
sg17
I66
sg37
g38
sg15
F894.6169678420993
sg31
g40
(g44
S'\x05\xec\xcd\x96\xbbX\xb5?'
p2057
tp2058
Rp2059
sg50
g55
sg23
I193
sg26
I61
sg33
g40
(g69
S'\xff\xff\xff\xff'
p2060
tp2061
Rp2062
sg18
F1.666695874882862
sg16
F1.0996518469182774
sg29
I0
sg28
S'a'
p2063
sg22
F3.217979157692753
sg19
I100
sg24
F3.251401631277986
sg21
I102
sa(dp2064
g30
I1
sg20
F2.0333781111985445
sg27
F3.50126231147442
sg32
g40
(g69
S'\xff\xff\xff\xff'
p2065
tp2066
Rp2067
sg39
g49
sg25
I183
sg14
I156
sg17
I72
sg37
g38
sg15
F898.4200424852315
sg31
g40
(g44
S'\xc3:\xa0\xc1\xf7\x97\xb7?'
p2068
tp2069
Rp2070
sg50
g55
sg23
I181
sg26
I29
sg33
g40
(g69
S'\xff\xff\xff\xff'
p2071
tp2072
Rp2073
sg18
F1.9999930340563878
sg16
F1.1994664781959727
sg29
I0
sg28
S'a'
p2074
sg22
F3.0174839121755213
sg19
I120
sg24
F3.050889887381345
sg21
I122
sa(dp2075
g30
I0
sg20
F1.8666081768460572
sg27
F3.8181607868755236
sg32
g40
(g69
S'\x01\x00\x00\x00'
p2076
tp2077
Rp2078
sg39
g49
sg25
I169
sg14
I157
sg17
I60
sg37
g38
sg15
F901.9395663338946
sg31
g40
(g44
S'\x05\xec\xcd\x96\xbbX\xb5?'
p2079
tp2080
Rp2081
sg50
g55
sg23
I167
sg26
I25
sg33
g40
(g69
S'\xff\xff\xff\xff'
p2082
tp2083
Rp2084
sg18
F1.833295325981453
sg16
F0.9992546386783943
sg29
I0
sg28
g129
sg22
F2.784004684071988
sg19
I110
sg24
F2.8173930610064417
sg21
I112
sa(dp2085
g30
I0
sg20
F1.8500331435352564
sg27
F3.5181372491642833
sg32
g40
(g69
S'\x01\x00\x00\x00'
p2086
tp2087
Rp2088
sg39
g49
sg25
I151
sg14
I158
sg17
I68
sg37
g38
sg15
F905.7590161963599
sg31
g40
(g44
S'\xc3:\xa0\xc1\xf7\x97\xb7?'
p2089
tp2090
Rp2091
sg50
g55
sg23
I149
sg26
I8
sg33
g40
(g69
S'\xff\xff\xff\xff'
p2092
tp2093
Rp2094
sg18
F1.81675475591328
sg16
F1.132933167507872
sg29
I0
sg28
g129
sg22
F2.4840541060548276
sg19
I109
sg24
F2.5173541248077527
sg21
I111
sa(dp2095
g30
I0
sg20
F1.6165722468867898
sg27
F3.251208050060086
sg32
g40
(g69
S'\x01\x00\x00\x00'
p2096
tp2097
Rp2098
sg39
g49
sg25
I135
sg14
I159
sg17
I64
sg37
g38
sg15
F909.2785110811237
sg31
g40
(g44
S'\x05\xec\xcd\x96\xbbX\xb5?'
p2099
tp2100
Rp2101
sg50
g55
sg23
I133
sg26
I6
sg33
g40
(g69
S'\xff\xff\xff\xff'
p2102
tp2103
Rp2104
sg18
F1.583267828449607
sg16
F1.0661479810951278
sg29
I0
sg28
g129
sg22
F2.2170508473645896
sg19
I95
sg24
F2.2504348246147856
sg21
I97
sa(dp2105
g30
I0
sg20
F1.683250010246411
sg27
F3.9351539264898747
sg32
g40
(g69
S'\x01\x00\x00\x00'
p2106
tp2107
Rp2108
sg39
g49
sg25
I176
sg14
I160
sg17
I60
sg37
g38
sg15
F912.5310140728252
sg31
g40
(g44
S'\x05\xec\xcd\x96\xbbX\xb5?'
p2109
tp2110
Rp2111
sg50
g55
sg23
I174
sg26
I43
sg33
g40
(g69
S'\xff\xff\xff\xff'
p2112
tp2113
Rp2114
sg18
F1.6499444920336828
sg16
F0.9995479435892776
sg29
I0
sg28
g129
sg22
F2.9009446621639654
sg19
I99
sg24
F2.9343150741187856
sg21
I101
sa(dp2115
g30
I0
sg20
F1.7666531256400049
sg27
F3.684965477907099
sg32
g40
(g69
S'\x01\x00\x00\x00'
p2116
tp2117
Rp2118
sg39
g49
sg25
I161
sg14
I161
sg17
I62
sg37
g38
sg15
F916.46748310572
sg31
g40
(g44
S'\xc3:\xa0\xc1\xf7\x97\xb7?'
p2119
tp2120
Rp2121
sg50
g55
sg23
I159
sg26
I23
sg33
g40
(g69
S'\x01\x00\x00\x00'
p2122
tp2123
Rp2124
sg18
F1.7334341324167326
sg16
F1.0328648274298757
sg29
I0
sg28
g129
sg22
F2.650793243316002
sg19
I104
sg24
F2.6841537562431768
sg21
I106
sa(dp2125
g30
I1
sg20
F1.7332621823297814
sg27
F3.0177126900525764
sg32
g40
(g69
S'\xff\xff\xff\xff'
p2126
tp2127
Rp2128
sg39
g49
sg25
I141
sg14
I162
sg17
I62
sg37
g38
sg15
F920.1537328930572
sg31
g40
(g44
S'\xc3:\xa0\xc1\xf7\x97\xb7?'
p2129
tp2130
Rp2131
sg50
g55
sg23
I139
sg26
I5
sg33
g40
(g69
S'\x01\x00\x00\x00'
p2132
tp2133
Rp2134
sg18
F1.7000413559144363
sg16
F1.03282853087876
sg29
I0
sg28
S'l'
p2135
sg22
F2.3171840810682625
sg19
I102
sg24
F2.350524795940146
sg21
I104
sa(dp2136
g30
I0
sg20
F1.733212320599705
sg27
F4.235280854278244
sg32
g40
(g69
S'\xff\xff\xff\xff'
p2137
tp2138
Rp2139
sg39
g49
sg25
I194
sg14
I163
sg17
I70
sg37
g38
sg15
F923.1895014401525
sg31
g40
(g44
S'\x05\xec\xcd\x96\xbbX\xb5?'
p2140
tp2141
Rp2142
sg50
g55
sg23
I192
sg26
I58
sg33
g40
(g69
S'\xff\xff\xff\xff'
p2143
tp2144
Rp2145
sg18
F1.6999680297449231
sg16
F1.166204589069821
sg29
I0
sg28
g129
sg22
F3.2011350170942023
sg19
I102
sg24
F3.2344925969373435
sg21
I104
sa(dp2146
g30
I0
sg20
F1.8165710737230256
sg27
F3.7181668729754165
sg32
g40
(g69
S'\x01\x00\x00\x00'
p2147
tp2148
Rp2149
sg39
g49
sg25
I163
sg14
I164
sg17
I66
sg37
g38
sg15
F927.4260669703363
sg31
g40
(g44
S'\x05\xec\xcd\x96\xbbX\xb5?'
p2150
tp2151
Rp2152
sg50
g55
sg23
I161
sg26
I22
sg33
g40
(g69
S'\xff\xff\xff\xff'
p2153
tp2154
Rp2155
sg18
F1.7833143173484132
sg16
F1.0994575324002653
sg29
I0
sg28
g129
sg22
F2.684023968875408
sg19
I107
sg24
F2.7173896146705374
sg21
I109
sa(dp2156
g30
I0
sg20
F1.6497652092948556
sg27
F4.135227179387584
sg32
g40
(g69
S'\x01\x00\x00\x00'
p2157
tp2158
Rp2159
sg39
g49
sg25
I188
sg14
I165
sg17
I63
sg37
g38
sg15
F931.1456398742739
sg31
g40
(g44
S'\xc3:\xa0\xc1\xf7\x97\xb7?'
p2160
tp2161
Rp2162
sg50
g55
sg23
I186
sg26
I57
sg33
g40
(g69
S'\x01\x00\x00\x00'
p2163
tp2164
Rp2165
sg18
F1.6165891118580475
sg16
F1.0494053973816335
sg29
I0
sg28
g129
sg22
F3.1010476121446118
sg19
I97
sg24
F3.1344015257200226
sg21
I99
sa(dp2166
g30
I1
sg20
F1.8666642713360488
sg27
F3.9349929753225297
sg32
g40
(g69
S'\x01\x00\x00\x00'
p2167
tp2168
Rp2169
sg39
g49
sg25
I210
sg14
I166
sg17
I65
sg37
g38
sg15
F935.2822730846237
sg31
g40
(g44
S'\xc3:\xa0\xc1\xf7\x97\xb7?'
p2170
tp2171
Rp2172
sg50
g55
sg23
I208
sg26
I66
sg33
g40
(g69
S'\x01\x00\x00\x00'
p2173
tp2174
Rp2175
sg18
F1.8334141144296154
sg16
F1.0828678337857127
sg29
I0
sg28
S'l'
p2176
sg22
F3.4680297528393567
sg19
I110
sg24
F3.5013701011193916
sg21
I112
sa(dp2177
g30
I1
sg20
F1.9666779834078625
sg27
F3.4846454822691157
sg32
g40
(g69
S'\x01\x00\x00\x00'
p2178
tp2179
Rp2180
sg39
g49
sg25
I183
sg14
I167
sg17
I71
sg37
g38
sg15
F939.2354271401418
sg31
g40
(g44
S'\x05\xec\xcd\x96\xbbX\xb5?'
p2181
tp2182
Rp2183
sg50
g55
sg23
I181
sg26
I33
sg33
g40
(g69
S'\xff\xff\xff\xff'
p2184
tp2185
Rp2186
sg18
F1.9334303928771988
sg16
F1.1828859454253688
sg29
I0
sg28
S'a'
p2187
sg22
F3.0176793267019093
sg19
I116
sg24
F3.0509808119386435
sg21
I118
sa(dp2188
g30
I0
sg20
F1.8500467088306323
sg27
F3.534660220844671
sg32
g40
(g69
S'\xff\xff\xff\xff'
p2189
tp2190
Rp2191
sg39
g49
sg25
I152
sg14
I168
sg17
I61
sg37
g38
sg15
F942.7381336122053
sg31
g40
(g44
S'\xa7\xc4d\x81\x1d9\xb4?'
p2192
tp2193
Rp2194
sg50
g55
sg23
I150
sg26
I9
sg33
g40
(g69
S'\x01\x00\x00\x00'
p2195
tp2196
Rp2197
sg18
F1.8167250588303432
sg16
F1.0160822808975354
sg29
I0
sg28
g129
sg22
F2.5005022848490626
sg19
I109
sg24
F2.5339555555256084
sg21
I111
sa(dp2198
g30
I1
sg20
F1.6332572696264833
sg27
F3.0177214893046767
sg32
g40
(g69
S'\xff\xff\xff\xff'
p2199
tp2200
Rp2201
sg39
g49
sg25
I151
sg14
I169
sg17
I65
sg37
g38
sg15
F946.2740825419314
sg31
g40
(g44
S'\x05\xec\xcd\x96\xbbX\xb5?'
p2202
tp2203
Rp2204
sg50
g55
sg23
I149
sg26
I21
sg33
g40
(g69
S'\xff\xff\xff\xff'
p2205
tp2206
Rp2207
sg18
F1.5999763156287372
sg16
F1.0828711334615946
sg29
I0
sg28
S'a'
p2208
sg22
F2.4840453068027273
sg19
I96
sg24
F2.5173291937680915
sg21
I98
sa(dp2209
g30
I1
sg20
F1.4997224601684138
sg27
F3.301155695109628
sg32
g40
(g69
S'\xff\xff\xff\xff'
p2210
tp2211
Rp2212
sg39
g49
sg25
I187
sg14
I170
sg17
I63
sg37
g38
sg15
F949.309916716069
sg31
g40
(g44
S'\x05\xec\xcd\x96\xbbX\xb5?'
p2213
tp2214
Rp2215
sg50
g55
sg23
I185
sg26
I65
sg33
g40
(g69
S'\xff\xff\xff\xff'
p2216
tp2217
Rp2218
sg18
F1.4663722128607333
sg16
F1.0494790903758258
sg29
I0
sg28
S'a'
p2219
sg22
F3.0843897202285007
sg19
I88
sg24
F3.1176989048253745
sg21
I90
sa(dp2220
g30
I1
sg20
F1.8832671685377136
sg27
F3.4846440156688914
sg32
g40
(g69
S'\xff\xff\xff\xff'
p2221
tp2222
Rp2223
sg39
g49
sg25
I181
sg14
I171
sg17
I68
sg37
g38
sg15
F952.6292166262865
sg31
g40
(g44
S'\xc3:\xa0\xc1\xf7\x97\xb7?'
p2224
tp2225
Rp2226
sg50
g55
sg23
I179
sg26
I36
sg33
g40
(g69
S'\x01\x00\x00\x00'
p2227
tp2228
Rp2229
sg18
F1.8500155451474711
sg16
F1.1328088794834912
sg29
I0
sg28
S'l'
p2230
sg22
F2.9842315554851666
sg19
I111
sg24
F3.017608200199902
sg21
I113
sa(dp2231
g30
I0
sg20
F1.6665030269650742
sg27
F3.7848538021789864
sg32
g40
(g69
S'\xff\xff\xff\xff'
p2232
tp2233
Rp2234
sg39
g49
sg25
I167
sg14
I172
sg17
I67
sg37
g38
sg15
F956.1319403300295
sg31
g40
(g44
S'\xa7\xc4d\x81\x1d9\xb4?'
p2235
tp2236
Rp2237
sg50
g55
sg23
I165
sg26
I35
sg33
g40
(g69
S'\xff\xff\xff\xff'
p2238
tp2239
Rp2240
sg18
F1.6332873333012685
sg16
F1.1161843510344625
sg29
I0
sg28
g129
sg22
F2.7508025559363887
sg19
I98
sg24
F2.7841388711240143
sg21
I100
sa(dp2241
g30
I1
sg20
F1.6666276815813035
sg27
F2.8343332590302452
sg32
g40
(g69
S'\x01\x00\x00\x00'
p2242
tp2243
Rp2244
sg39
g49
sg25
I148
sg14
I173
sg17
I68
sg37
g38
sg15
F959.918077708222
sg31
g40
(g44
S'"b\t\xd7\x95\xb7\xb8?'
p2245
tp2246
Rp2247
sg50
g55
sg23
I146
sg26
I16
sg33
g40
(g69
S'\xff\xff\xff\xff'
p2248
tp2249
Rp2250
sg18
F1.6333393949316815
sg16
F1.132929134531878
sg29
I0
sg28
S'a'
p2251
sg22
F2.4339631081093103
sg19
I98
sg24
F2.467324354336597
sg21
I100
sa(dp2252
g30
I0
sg20
F1.5997471710434183
sg27
F3.5346902845194563
sg32
g40
(g69
S'\xff\xff\xff\xff'
p2253
tp2254
Rp2255
sg39
g49
sg25
I152
sg14
I174
sg17
I67
sg37
g38
sg15
F962.7704429932637
sg31
g40
(g44
S'\xc3:\xa0\xc1\xf7\x97\xb7?'
p2256
tp2257
Rp2258
sg50
g55
sg23
I150
sg26
I24
sg33
g40
(g69
S'\x01\x00\x00\x00'
p2259
tp2260
Rp2261
sg18
F1.5665707070147619
sg16
F1.1161106581566855
sg29
I0
sg28
g129
sg22
F2.5005213496042415
sg19
I94
sg24
F2.5338624311843887
sg21
I96
sa(dp2262
g30
I0
sg20
F1.8500375429866835
sg27
F4.018616802874021
sg32
g40
(g69
S'\x01\x00\x00\x00'
p2263
tp2264
Rp2265
sg39
g49
sg25
I181
sg14
I175
sg17
I71
sg37
g38
sg15
F966.3064619495999
sg31
g40
(g44
S'\x05\xec\xcd\x96\xbbX\xb5?'
p2266
tp2267
Rp2268
sg50
g55
sg23
I179
sg26
I38
sg33
g40
(g69
S'\xff\xff\xff\xff'
p2269
tp2270
Rp2271
sg18
F1.8167441235855222
sg16
F1.18289437785279
sg29
I0
sg28
g129
sg22
F2.9844196373596787
sg19
I109
sg24
F3.017766584875062
sg21
I111
sa(dp2272
g30
I0
sg20
F1.8499609170248732
sg27
F3.8850361644290388
sg32
g40
(g69
S'\xff\xff\xff\xff'
p2273
tp2274
Rp2275
sg39
g49
sg25
I173
sg14
I176
sg17
I68
sg37
g38
sg15
F970.3263828598429
sg31
g40
(g44
S'\xc3:\xa0\xc1\xf7\x97\xb7?'
p2276
tp2277
Rp2278
sg50
g55
sg23
I171
sg26
I30
sg33
g40
(g69
S'\x01\x00\x00\x00'
p2279
tp2280
Rp2281
sg18
F1.8167224923381582
sg16
F1.1328521419782192
sg29
I0
sg28
g129
sg22
F2.8508925271453336
sg19
I109
sg24
F2.8842567063402385
sg21
I111
sa(dp2282
g30
I0
sg20
F1.7001062497729436
sg27
F3.8852004152722657
sg32
g40
(g69
S'\xff\xff\xff\xff'
p2283
tp2284
Rp2285
sg39
g49
sg25
I173
sg14
I177
sg17
I61
sg37
g38
sg15
F1015.4612811710685
sg31
g40
(g44
S'\x05\xec\xcd\x96\xbbX\xb5?'
p2286
tp2287
Rp2288
sg50
g55
sg23
I171
sg26
I39
sg33
g40
(g69
S'\xff\xff\xff\xff'
p2289
tp2290
Rp2291
sg18
F1.6667922990163788
sg16
F1.0163737527327612
sg29
I0
sg28
g129
sg22
F2.851189131848514
sg19
I100
sg24
F2.88448768411763
sg21
I102
sa(dp2292
g30
I1
sg20
F1.833428046433255
sg27
F3.18452772020828
sg32
g40
(g69
S'\x01\x00\x00\x00'
p2293
tp2294
Rp2295
sg39
g49
sg25
I166
sg14
I178
sg17
I66
sg37
g38
sg15
F1019.3479297799058
sg31
g40
(g44
S'\xa7\xc4d\x81\x1d9\xb4?'
p2296
tp2297
Rp2298
sg50
g55
sg23
I164
sg26
I24
sg33
g40
(g69
S'\x01\x00\x00\x00'
p2299
tp2300
Rp2301
sg18
F1.8001544250873849
sg16
F1.0996327820466831
sg29
I0
sg28
S'l'
p2302
sg22
F2.7342524534324184
sg19
I108
sg24
F2.767558704945259
sg21
I110
sa(dp2303
g30
I0
sg20
F1.7331741909729317
sg27
F4.518677297048271
sg32
g40
(g69
S'\xff\xff\xff\xff'
p2304
tp2305
Rp2306
sg39
g49
sg25
I211
sg14
I179
sg17
I70
sg37
g38
sg15
F1022.5506321457215
sg31
g40
(g44
S'\xa7\xc4d\x81\x1d9\xb4?'
p2307
tp2308
Rp2309
sg50
g55
sg23
I209
sg26
I75
sg33
g40
(g69
S'\x01\x00\x00\x00'
p2310
tp2311
Rp2312
sg18
F1.6999328332021832
sg16
F1.1660872671054676
sg29
I0
sg28
g129
sg22
F3.484657947672531
sg19
I102
sg24
F3.51801992719993
sg21
I104
sa(dp2313
g30
I1
sg20
F1.666498260688968
sg27
F3.4179798177210614
sg32
g40
(g69
S'\x01\x00\x00\x00'
p2314
tp2315
Rp2316
sg39
g49
sg25
I179
sg14
I180
sg17
I63
sg37
g38
sg15
F1027.0706241824664
sg31
g40
(g44
S'\xc3:\xa0\xc1\xf7\x97\xb7?'
p2317
tp2318
Rp2319
sg50
g55
sg23
I177
sg26
I47
sg33
g40
(g69
S'\x01\x00\x00\x00'
p2320
tp2321
Rp2322
sg18
F1.6332561696181074
sg16
F1.0494614919880405
sg29
I0
sg28
S'l'
p2323
sg22
F2.950949501711875
sg19
I98
sg24
F2.9843140474986285
sg21
I100
sa(dp2324
g30
I1
sg20
F1.9333295692922547
sg27
F3.0843460911419243
sg32
g40
(g69
S'\x01\x00\x00\x00'
p2325
tp2326
Rp2327
sg39
g49
sg25
I161
sg14
I181
sg17
I68
sg37
g38
sg15
F1030.5068472056882
sg31
g40
(g44
S'\xc3:\xa0\xc1\xf7\x97\xb7?'
p2328
tp2329
Rp2330
sg50
g55
sg23
I159
sg26
I13
sg33
g40
(g69
S'\x01\x00\x00\x00'
p2331
tp2332
Rp2333
sg18
F1.9001531052635983
sg16
F1.1328910049051046
sg29
I0
sg28
S'l'
p2334
sg22
F2.6505706981988624
sg19
I114
sg24
F2.684030568227172
sg21
I116
sa(dp2335
g30
I1
sg20
F1.849947718437761
sg27
F3.3845192143926397
sg32
g40
(g69
S'\x01\x00\x00\x00'
p2336
tp2337
Rp2338
sg39
g49
sg25
I180
sg14
I182
sg17
I71
sg37
g38
sg15
F1033.6092722516041
sg31
g40
(g44
S'\xc3:\xa0\xc1\xf7\x97\xb7?'
p2339
tp2340
Rp2341
sg50
g55
sg23
I178
sg26
I37
sg33
g40
(g69
S'\x01\x00\x00\x00'
p2342
tp2343
Rp2344
sg18
F1.816623501945287
sg16
F1.1827792557887733
sg29
I0
sg28
S'l'
p2345
sg22
F2.9675960281165317
sg19
I109
sg24
F3.0009554411517456
sg21
I111
sa(dp2346
g30
I1
sg20
F1.6831209560623392
sg27
F3.1010039830580354
sg32
g40
(g69
S'\x01\x00\x00\x00'
p2347
tp2348
Rp2349
sg39
g49
sg25
I164
sg14
I183
sg17
I61
sg37
g38
sg15
F1037.011964278412
sg31
g40
(g44
S'"b\t\xd7\x95\xb7\xb8?'
p2350
tp2351
Rp2352
sg50
g55
sg23
I162
sg26
I31
sg33
g40
(g69
S'\x01\x00\x00\x00'
p2353
tp2354
Rp2355
sg18
F1.6498667661799118
sg16
F1.016044884454459
sg29
I0
sg28
S'l'
p2356
sg22
F2.7006921265274286
sg19
I99
sg24
F2.734050072962418
sg21
I101
sa(dp2357
g30
I0
sg20
F1.9999699363252148
sg27
F3.7848296044394374
sg32
g40
(g69
S'\x01\x00\x00\x00'
p2358
tp2359
Rp2360
sg39
g49
sg25
I167
sg14
I184
sg17
I69
sg37
g38
sg15
F1040.131116509554
sg31
g40
(g44
S'\xc3:\xa0\xc1\xf7\x97\xb7?'
p2361
tp2362
Rp2363
sg50
g55
sg23
I165
sg26
I15
sg33
g40
(g69
S'\xff\xff\xff\xff'
p2364
tp2365
Rp2366
sg18
F1.9666512192925438
sg16
F1.149344683275558
sg29
I0
sg28
g129
sg22
F2.750602008542046
sg19
I118
sg24
F2.7840340146794915
sg21
I120
sa(dp2367
g30
I1
sg20
F1.6999310000101104
sg27
F3.8183690333971754
sg32
g40
(g69
S'\x01\x00\x00\x00'
p2368
tp2369
Rp2370
sg39
g49
sg25
I201
sg14
I185
sg17
I70
sg37
g38
sg15
F1043.9172296901233
sg31
g40
(g44
S'\xc3:\xa0\xc1\xf7\x97\xb7?'
p2371
tp2372
Rp2373
sg50
g55
sg23
I199
sg26
I67
sg33
g40
(g69
S'\xff\xff\xff\xff'
p2374
tp2375
Rp2376
sg18
F1.6666889089392498
sg16
F1.1662874476751313
sg29
I0
sg28
S'a'
p2377
sg22
F3.31804603128694
sg19
I100
sg24
F3.351331751444377
sg21
I102
sa(dp2378
g30
I1
sg20
F1.4830015075858682
sg27
F2.9174962310353294
sg32
g40
(g69
S'\x01\x00\x00\x00'
p2379
tp2380
Rp2381
sg39
g49
sg25
I123
sg14
I186
sg17
I60
sg37
g38
sg15
F1047.7536505475873
sg31
g40
(g44
S'\x05\xec\xcd\x96\xbbX\xb5?'
p2382
tp2383
Rp2384
sg50
g55
sg23
I121
sg26
I2
sg33
g40
(g69
S'\xff\xff\xff\xff'
p2385
tp2386
Rp2387
sg18
F1.4497575834393501
sg16
F0.9994834165554494
sg29
I0
sg28
S'a'
p2388
sg22
F2.0168181098997593
sg19
I87
sg24
F2.0501555249793455
sg21
I89
sa(dp2389
g30
I1
sg20
F1.6163629003567621
sg27
F3.9516560001065955
sg32
g40
(g69
S'\x01\x00\x00\x00'
p2390
tp2391
Rp2392
sg39
g49
sg25
I205
sg14
I187
sg17
I65
sg37
g38
sg15
F1050.6892704624915
sg31
g40
(g44
S'\xc3:\xa0\xc1\xf7\x97\xb7?'
p2393
tp2394
Rp2395
sg50
g55
sg23
I203
sg26
I76
sg33
g40
(g69
S'\xff\xff\xff\xff'
p2396
tp2397
Rp2398
sg18
F1.5831395075656474
sg16
F1.0827285138657317
sg29
I0
sg28
S'a'
p2399
sg22
F3.3845291134202853
sg19
I95
sg24
F3.417819233145565
sg21
I97
sa(dp2400
g30
I1
sg20
F1.849965316709131
sg27
F3.351176299736835
sg32
g40
(g69
S'\xff\xff\xff\xff'
p2401
tp2402
Rp2403
sg39
g49
sg25
I173
sg14
I188
sg17
I67
sg37
g38
sg15
F1054.6590582123026
sg31
g40
(g44
S'\x05\xec\xcd\x96\xbbX\xb5?'
p2404
tp2405
Rp2406
sg50
g55
sg23
I171
sg26
I30
sg33
g40
(g69
S'\xff\xff\xff\xff'
p2407
tp2408
Rp2409
sg18
F1.8167206592625007
sg16
F1.1160809609573334
sg29
I0
sg28
S'a'
p2410
sg22
F2.850774471880868
sg19
I109
sg24
F2.8841375511838123
sg21
I111
sa(dp2411
g30
I0
sg20
F1.5330430102767423
sg27
F3.4346087457379326
sg32
g40
(g69
S'\xff\xff\xff\xff'
p2412
tp2413
Rp2414
sg39
g49
sg25
I146
sg14
I189
sg17
I63
sg37
g38
sg15
F1058.0283578292
sg31
g40
(g44
S'\xa7\xc4d\x81\x1d9\xb4?'
p2415
tp2416
Rp2417
sg50
g55
sg23
I144
sg26
I22
sg33
g40
(g69
S'\xff\xff\xff\xff'
p2418
tp2419
Rp2420
sg18
F1.4998166842851788
sg16
F1.0493749669985846
sg29
I0
sg28
g129
sg22
F2.400525235920213
sg19
I90
sg24
F2.433809489593841
sg21
I92
sa(dp2421
g30
I0
sg20
F1.7333197435364127
sg27
F4.468845874071121
sg32
g40
(g69
S'\x01\x00\x00\x00'
p2422
tp2423
Rp2424
sg39
g49
sg25
I208
sg14
I190
sg17
I64
sg37
g38
sg15
F1061.4642516176682
sg31
g40
(g44
S'\x05\xec\xcd\x96\xbbX\xb5?'
p2425
tp2426
Rp2427
sg50
g55
sg23
I206
sg26
I72
sg33
g40
(g69
S'\x01\x00\x00\x00'
p2428
tp2429
Rp2430
sg18
F1.7000189914833754
sg16
F1.0661754785105586
sg29
I0
sg28
g129
sg22
F3.43471250240691
sg19
I102
sg24
F3.4680763150099665
sg21
I104
sa(dp2431
g30
I1
sg20
F1.5832329984987155
sg27
F3.218015820835717
sg32
g40
(g69
S'\x01\x00\x00\x00'
p2432
tp2433
Rp2434
sg39
g49
sg25
I172
sg14
I191
sg17
I60
sg37
g38
sg15
F1065.9343913334887
sg31
g40
(g44
S'\xc3:\xa0\xc1\xf7\x97\xb7?'
p2435
tp2436
Rp2437
sg50
g55
sg23
I170
sg26
I45
sg33
g40
(g69
S'\x01\x00\x00\x00'
p2438
tp2439
Rp2440
sg18
F1.5499289468862116
sg16
F0.9994815833633766
sg29
I0
sg28
S'l'
p2441
sg22
F2.8342515002004802
sg19
I93
sg24
F2.8676336443750188
sg21
I95
sa(dp2442
g30
I1
sg20
F1.8666477728402242
sg27
F4.218556235311553
sg32
g40
(g69
S'\x01\x00\x00\x00'
p2443
tp2444
Rp2445
sg39
g49
sg25
I223
sg14
I192
sg17
I68
sg37
g38
sg15
F1069.170396651025
sg31
g40
(g44
S'\x05\xec\xcd\x96\xbbX\xb5?'
p2446
tp2447
Rp2448
sg50
g55
sg23
I221
sg26
I79
sg33
g40
(g69
S'\x01\x00\x00\x00'
p2449
tp2450
Rp2451
sg18
F1.8333587530069053
sg16
F1.1328587413299829
sg29
I0
sg28
S'l'
p2452
sg22
F3.684790961444378
sg19
I110
sg24
F3.7181668729754165
sg21
I112
sa(dp2453
g30
I0
sg20
F1.7498892773874104
sg27
F3.618132262956351
sg32
g40
(g69
S'\xff\xff\xff\xff'
p2454
tp2455
Rp2456
sg39
g49
sg25
I157
sg14
I193
sg17
I66
sg37
g38
sg15
F1073.4070157094393
sg31
g40
(g44
S'\xc3:\xa0\xc1\xf7\x97\xb7?'
p2457
tp2458
Rp2459
sg50
g55
sg23
I155
sg26
I20
sg33
g40
(g69
S'\x01\x00\x00\x00'
p2460
tp2461
Rp2462
sg18
F1.7166383871808648
sg16
F1.099533791653812
sg29
I0
sg28
g129
sg22
F2.583986059180461
sg19
I103
sg24
F2.617370769730769
sg21
I105
sa(dp2463
g30
I0
sg20
F1.7332926128292456
sg27
F3.2846686533885077
sg32
g40
(g69
S'\x01\x00\x00\x00'
p2464
tp2465
Rp2466
sg39
g49
sg25
I137
sg14
I194
sg17
I68
sg37
g38
sg15
F1077.0264762775041
sg31
g40
(g44
S'\xc3:\xa0\xc1\xf7\x97\xb7?'
p2467
tp2468
Rp2469
sg50
g55
sg23
I135
sg26
I1
sg33
g40
(g69
S'\x01\x00\x00\x00'
p2470
tp2471
Rp2472
sg18
F1.6999284336343408
sg16
F1.1328719401499256
sg29
I0
sg28
g129
sg22
F2.250340233789757
sg19
I102
sg24
F2.2837249444564804
sg21
I104
sa(dp2473
g30
I0
sg20
F1.8165993043221533
sg27
F4.251965876901522
sg32
g40
(g69
S'\xff\xff\xff\xff'
p2474
tp2475
Rp2476
sg39
g49
sg25
I195
sg14
I195
sg17
I65
sg37
g38
sg15
F1080.312439139234
sg31
g40
(g44
S'\x05\xec\xcd\x96\xbbX\xb5?'
p2477
tp2478
Rp2479
sg50
g55
sg23
I193
sg26
I54
sg33
g40
(g69
S'\x01\x00\x00\x00'
p2480
tp2481
Rp2482
sg18
F1.7832978189690039
sg16
F1.082746112253517
sg29
I0
sg28
g129
sg22
F3.217827005777508
sg19
I107
sg24
F3.251107959775254
sg21
I109
sa(dp2483
g30
I1
sg20
F1.6665836857864633
sg27
F3.9351341283181682
sg32
g40
(g69
S'\x01\x00\x00\x00'
p2484
tp2485
Rp2486
sg39
g49
sg25
I206
sg14
I196
sg17
I68
sg37
g38
sg15
F1084.565703624161
sg31
g40
(g44
S'\xc3:\xa0\xc1\xf7\x97\xb7?'
p2487
tp2488
Rp2489
sg50
g55
sg23
I204
sg26
I74
sg33
g40
(g69
S'\xff\xff\xff\xff'
p2490
tp2491
Rp2492
sg18
F1.6333360952557996
sg16
F1.1328840389614925
sg29
I0
sg28
S'a'
p2493
sg22
F3.4014550128486007
sg19
I98
sg24
F3.434746965765953
sg21
I100
sa(dp2494
g30
I0
sg20
F1.6163823319366202
sg27
F4.118441333179362
sg32
g40
(g69
S'\x01\x00\x00\x00'
p2495
tp2496
Rp2497
sg39
g49
sg25
I187
sg14
I197
sg17
I67
sg37
g38
sg15
F1088.5189618029399
sg31
g40
(g44
S'\x05\xec\xcd\x96\xbbX\xb5?'
p2498
tp2499
Rp2500
sg50
g55
sg23
I185
sg26
I58
sg33
g40
(g69
S'\xff\xff\xff\xff'
p2501
tp2502
Rp2503
sg18
F1.5831398742739111
sg16
F1.1161044253967702
sg29
I0
sg28
g129
sg22
F3.0843072282150388
sg19
I95
sg24
F3.117667007842101
sg21
I97
sa(dp2504
g30
I0
sg20
F1.59983736241702
sg27
F4.352049615466967
sg32
g40
(g69
S'\x01\x00\x00\x00'
p2505
tp2506
Rp2507
sg39
g49
sg25
I201
sg14
I198
sg17
I68
sg37
g38
sg15
F1092.6386867121328
sg31
g40
(g44
S'\xa7\xc4d\x81\x1d9\xb4?'
p2508
tp2509
Rp2510
sg50
g55
sg23
I199
sg26
I73
sg33
g40
(g69
S'\xff\xff\xff\xff'
p2511
tp2512
Rp2513
sg18
F1.5666095699416474
sg16
F1.1329727637348697
sg29
I0
sg28
g129
sg22
F3.3179815041366965
sg19
I94
sg24
F3.3512609916506335
sg21
I96
sa(dp2514
g30
I0
sg20
F1.7333776712184772
sg27
F4.318870218354277
sg32
g40
(g69
S'\xff\xff\xff\xff'
p2515
tp2516
Rp2517
sg39
g49
sg25
I199
sg14
I199
sg17
I60
sg37
g38
sg15
F1096.9920235699974
sg31
g40
(g44
S'\xc3:\xa0\xc1\xf7\x97\xb7?'
p2518
tp2519
Rp2520
sg50
g55
sg23
I197
sg26
I63
sg33
g40
(g69
S'\xff\xff\xff\xff'
p2521
tp2522
Rp2523
sg18
F1.7001333803636953
sg16
F0.9995002815267071
sg29
I0
sg28
g129
sg22
F3.284726580954157
sg19
I102
sg24
F3.317940808017738
sg21
I104
sa(dp2524
g30
I1
sg20
F1.9501055164728314
sg27
F3.5014331616694108
sg32
g40
(g69
S'\xff\xff\xff\xff'
p2525
tp2526
Rp2527
sg39
g49
sg25
I150
sg14
I200
sg17
I70
sg37
g38
sg15
F1101.3121773644816
sg31
g40
(g44
S'\x00\x00\x00\x00\x00\x00\x00\x00'
p2528
tp2529
Rp2530
sg50
g55
sg23
I148
sg26
F1.0
sg33
g40
(g69
S'\xff\xff\xff\xff'
p2531
tp2532
Rp2533
sg18
F1.9168586592422798
sg16
F1.1663373096380383
sg29
I0
sg28
g129
sg22
F2.467291357461363
sg19
I115
sg24
F2.500646004336886
sg21
I117
sa(dp2534
g30
I0
sg20
F1.9167699344689026
sg27
F4.435517258010805
sg32
g40
(g69
S'\x01\x00\x00\x00'
p2535
tp2536
Rp2537
sg39
g49
sg25
I206
sg14
I201
sg17
I65
sg37
g38
sg15
F1104.814898135257
sg31
g40
(g44
S'\x05\xec\xcd\x96\xbbX\xb5?'
p2538
tp2539
Rp2540
sg50
g55
sg23
I204
sg26
I59
sg33
g40
(g69
S'\xff\xff\xff\xff'
p2541
tp2542
Rp2543
sg18
F1.8835157445864752
sg16
F1.0829253948759288
sg29
I0
sg28
g129
sg22
F3.4013736207270995
sg19
I113
sg24
F3.434727167710662
sg21
I115
sa(dp2544
g30
I1
sg20
F1.8833980559138581
sg27
F4.018511946313083
sg32
g40
(g69
S'\xff\xff\xff\xff'
p2545
tp2546
Rp2547
sg39
g49
sg25
I211
sg14
I202
sg17
I69
sg37
g38
sg15
F1109.2517077685334
sg31
g40
(g44
S'\xc3:\xa0\xc1\xf7\x97\xb7?'
p2548
tp2549
Rp2550
sg50
g55
sg23
I209
sg26
I66
sg33
g40
(g69
S'\x01\x00\x00\x00'
p2551
tp2552
Rp2553
sg18
F1.850150098791346
sg16
F1.1495961922919378
sg29
I0
sg28
S'l'
p2554
sg22
F3.4847598711494356
sg19
I111
sg24
F3.518129183212295
sg21
I113
sa(dp2555
g30
I1
sg20
F1.666493494529277
sg27
F2.8341899062506855
sg32
g40
(g69
S'\xff\xff\xff\xff'
p2556
tp2557
Rp2558
sg39
g49
sg25
I135
sg14
I203
sg17
I68
sg37
g38
sg15
F1113.288280338049
sg31
g40
(g44
S'\xc3:\xa0\xc1\xf7\x97\xb7?'
p2559
tp2560
Rp2561
sg50
g55
sg23
I133
sg26
I3
sg33
g40
(g69
S'\xff\xff\xff\xff'
p2562
tp2563
Rp2564
sg18
F1.6332499369746074
sg16
F1.1328587413299829
sg29
I0
sg28
S'a'
p2565
sg22
F2.2170493808807805
sg19
I98
sg24
F2.2503919288283214
sg21
I100
sa(dp2566
g30
I1
sg20
F1.799884584499523
sg27
F2.817467120476067
sg32
g40
(g69
S'\xff\xff\xff\xff'
p2567
tp2568
Rp2569
sg39
g49
sg25
I143
sg14
I204
sg17
I69
sg37
g38
sg15
F1116.140531967394
sg31
g40
(g44
S'\x05\xec\xcd\x96\xbbX\xb5?'
p2570
tp2571
Rp2572
sg50
g55
sg23
I141
sg26
I3
sg33
g40
(g69
S'\x01\x00\x00\x00'
p2573
tp2574
Rp2575
sg18
F1.7665768663864583
sg16
F1.149524699198082
sg29
I0
sg28
S'l'
p2576
sg22
F2.350368611048907
sg19
I106
sg24
F2.3837947510182858
sg21
I108
sa(dp2577
g30
I1
sg20
F1.8833650591550395
sg27
F4.085139847826213
sg32
g40
(g69
S'\x01\x00\x00\x00'
p2578
tp2579
Rp2580
sg39
g49
sg25
I215
sg14
I205
sg17
I65
sg37
g38
sg15
F1118.9760017832741
sg31
g40
(g44
S'\x05\xec\xcd\x96\xbbX\xb5?'
p2581
tp2582
Rp2583
sg50
g55
sg23
I213
sg26
I70
sg33
g40
(g69
S'\xff\xff\xff\xff'
p2584
tp2585
Rp2586
sg18
F1.8501273677684367
sg16
F1.0828678337857127
sg29
I0
sg28
S'a'
p2587
sg22
F3.5514013380743563
sg19
I111
sg24
F3.5848784397821873
sg21
I113
sa(dp2588
g30
I0
sg20
F1.88338375731837
sg27
F4.118662778404541
sg32
g40
(g69
S'\x01\x00\x00\x00'
p2589
tp2590
Rp2591
sg39
g49
sg25
I187
sg14
I206
sg17
I70
sg37
g38
sg15
F1123.079205920687
sg31
g40
(g44
S'\xc3:\xa0\xc1\xf7\x97\xb7?'
p2592
tp2593
Rp2594
sg50
g55
sg23
I185
sg26
I42
sg33
g40
(g69
S'\x01\x00\x00\x00'
p2595
tp2596
Rp2597
sg18
F1.8500756726134568
sg16
F1.1661895571742207
sg29
I0
sg28
g129
sg22
F3.0844817446777597
sg19
I111
sg24
F3.1178026613779366
sg21
I113
sa(dp2598
g30
I1
sg20
F1.983366672298871
sg27
F3.985005514114164
sg32
g40
(g69
S'\xff\xff\xff\xff'
p2599
tp2600
Rp2601
sg39
g49
sg25
I219
sg14
I207
sg17
I70
sg37
g38
sg15
F1127.199163274141
sg31
g40
(g44
S'\x05\xec\xcd\x96\xbbX\xb5?'
p2602
tp2603
Rp2604
sg50
g55
sg23
I217
sg26
I68
sg33
g40
(g69
S'\x01\x00\x00\x00'
p2605
tp2606
Rp2607
sg18
F1.9500981838209555
sg16
F1.166184424306266
sg29
I0
sg28
S'l'
p2608
sg22
F3.618032172555104
sg19
I117
sg24
F3.651428615441546
sg21
I119
sa(dp2609
g30
I0
sg20
F1.983401135657914
sg27
F4.635649172007106
sg32
g40
(g69
S'\xff\xff\xff\xff'
p2610
tp2611
Rp2612
sg39
g49
sg25
I218
sg14
I208
sg17
I70
sg37
g38
sg15
F1131.2022675412009
sg31
g40
(g44
S'\x05\xec\xcd\x96\xbbX\xb5?'
p2613
tp2614
Rp2615
sg50
g55
sg23
I216
sg26
I67
sg33
g40
(g69
S'\x01\x00\x00\x00'
p2616
tp2617
Rp2618
sg18
F1.9501839755102992
sg16
F1.1662383191287518
sg29
I0
sg28
g129
sg22
F3.601472537848167
sg19
I117
sg24
F3.6348315842915326
sg21
I119
sa(dp2619
g30
I1
sg20
F1.64984586823266
sg27
F2.7508168544154614
sg32
g40
(g69
S'\xff\xff\xff\xff'
p2620
tp2621
Rp2622
sg39
g49
sg25
I131
sg14
I209
sg17
I61
sg37
g38
sg15
F1135.839214587817
sg31
g40
(g44
S'\xc3:\xa0\xc1\xf7\x97\xb7?'
p2623
tp2624
Rp2625
sg50
g55
sg23
I129
sg26
I0
sg33
g40
(g69
S'\x01\x00\x00\x00'
p2626
tp2627
Rp2628
sg18
F1.6166334742447361
sg16
F1.016129576251842
sg29
I0
sg28
S'l'
p2629
sg22
F2.150354019133374
sg19
I97
sg24
F2.1836089421994984
sg21
I99
sa(dp2630
g30
I1
sg20
F1.5663635603850707
sg27
F3.751535451738164
sg32
g40
(g69
S'\x01\x00\x00\x00'
p2631
tp2632
Rp2633
sg39
g49
sg25
I200
sg14
I210
sg17
I67
sg37
g38
sg15
F1138.6080982983112
sg31
g40
(g44
S'\xc3:\xa0\xc1\xf7\x97\xb7?'
p2634
tp2635
Rp2636
sg50
g55
sg23
I198
sg26
I74
sg33
g40
(g69
S'\x01\x00\x00\x00'
p2637
tp2638
Rp2639
sg18
F1.533092872123234
sg16
F1.1160486973822117
sg29
I0
sg28
S'l'
p2640
sg22
F3.3011776929488406
sg19
I92
sg24
F3.334487977437675
sg21
I94
sa(dp2641
g30
I1
sg20
F1.783143833745271
sg27
F4.335186043288559
sg32
g40
(g69
S'\x01\x00\x00\x00'
p2642
tp2643
Rp2644
sg39
g49
sg25
I200
sg14
I211
sg17
I70
sg37
g38
sg15
F1142.377787497593
sg31
g40
(g44
S'\x00\x00\x00\x00\x00\x00\x00\x00'
p2645
tp2646
Rp2647
sg50
g55
sg23
I198
sg26
F61.0
sg33
g40
(g69
S'\x01\x00\x00\x00'
p2648
tp2649
Rp2650
sg18
F1.7498999095987529
sg16
F1.1660385050345212
sg29
I0
sg28
g129
sg22
F3.3010490053566173
sg19
I105
sg24
F3.33443884877488
sg21
I107
sa(dp2651
g30
I0
sg20
F1.833381850970909
sg27
F3.8015963858924806
sg32
g40
(g69
S'\x01\x00\x00\x00'
p2652
tp2653
Rp2654
sg39
g49
sg25
I168
sg14
I212
sg17
I69
sg37
g38
sg15
F1146.714281681343
sg31
g40
(g44
S'\x05\xec\xcd\x96\xbbX\xb5?'
p2655
tp2656
Rp2657
sg50
g55
sg23
I166
sg26
I26
sg33
g40
(g69
S'\xff\xff\xff\xff'
p2658
tp2659
Rp2660
sg18
F1.8001379267079756
sg16
F1.1495481636375189
sg29
I0
sg28
g129
sg22
F2.767562004737556
sg19
I108
sg24
F2.8009217843646184
sg21
I110
sa(dp2661
g30
I1
sg20
F1.5999150881543756
sg27
F2.934438628843054
sg32
g40
(g69
S'\xff\xff\xff\xff'
p2662
tp2663
Rp2664
sg39
g49
sg25
I154
sg14
I213
sg17
I65
sg37
g38
sg15
F1150.5172269036993
sg31
g40
(g44
S'\xa7\xc4d\x81\x1d9\xb4?'
p2665
tp2666
Rp2667
sg50
g55
sg23
I152
sg26
I26
sg33
g40
(g69
S'\x01\x00\x00\x00'
p2668
tp2669
Rp2670
sg18
F1.566668230923824
sg16
F1.0829561919672415
sg29
I0
sg28
S'l'
p2671
sg22
F2.534078743541613
sg19
I94
sg24
F2.5674531884724274
sg21
I96
sa(dp2672
g30
I0
sg20
F1.7165338972117752
sg27
F3.9516614995663986
sg32
g40
(g69
S'\xff\xff\xff\xff'
p2673
tp2674
Rp2675
sg39
g49
sg25
I177
sg14
I214
sg17
I63
sg37
g38
sg15
F1153.4697001249297
sg31
g40
(g44
S'\x05\xec\xcd\x96\xbbX\xb5?'
p2676
tp2677
Rp2678
sg50
g55
sg23
I175
sg26
I42
sg33
g40
(g69
S'\x01\x00\x00\x00'
p2679
tp2680
Rp2681
sg18
F1.6832921728491783
sg16
F1.0494640583638102
sg29
I0
sg28
g129
sg22
F2.9175559919094667
sg19
I101
sg24
F2.9509322700323537
sg21
I103
sa(dp2682
g30
I1
sg20
F1.5499025494791567
sg27
F4.068623475614004
sg32
g40
(g69
S'\x01\x00\x00\x00'
p2683
tp2684
Rp2685
sg39
g49
sg25
I184
sg14
I215
sg17
I64
sg37
g38
sg15
F1157.42265436647
sg31
g40
(g44
S'\x00\x00\x00\x00\x00\x00\x00\x00'
p2686
tp2687
Rp2688
sg50
g55
sg23
I182
sg26
F59.0
sg33
g40
(g69
S'\x01\x00\x00\x00'
p2689
tp2690
Rp2691
sg18
F1.5165552352555096
sg16
F1.066264936584048
sg29
I0
sg28
g129
sg22
F3.0344820379978046
sg19
I91
sg24
F3.067810654058121
sg21
I93
sa(dp2692
g30
I1
sg20
F1.5498046588618308
sg27
F4.2354381390614435
sg32
g40
(g69
S'\x01\x00\x00\x00'
p2693
tp2694
Rp2695
sg39
g49
sg25
I194
sg14
I216
sg17
I65
sg37
g38
sg15
F1161.492574616801
sg31
g40
(g44
S'\x00\x00\x00\x00\x00\x00\x00\x00'
p2696
tp2697
Rp2698
sg50
g55
sg23
I192
sg26
F69.0
sg33
g40
(g69
S'\x01\x00\x00\x00'
p2699
tp2700
Rp2701
sg18
F1.5165640343911946
sg16
F1.0828198051312938
sg29
I0
sg28
g129
sg22
F3.201177912997082
sg19
I91
sg24
F3.234590120962821
sg21
I93
sa(dp2702
g30
I1
sg20
F1.5818079027812928
sg27
F3.8169912331504747
sg32
g40
(g69
S'\xff\xff\xff\xff'
p2703
tp2704
Rp2705
sg39
g49
sg25
I201
sg14
I217
sg17
I65
sg37
g38
sg15
F1165.7292988983681
sg31
g40
(g44
S'\xc3:\xa0\xc1\xf7\x97\xb7?'
p2706
tp2707
Rp2708
sg50
g55
sg23
I199
sg26
I74
sg33
g40
(g69
S'\xff\xff\xff\xff'
p2709
tp2710
Rp2711
sg18
F1.5485665450105444
sg16
F1.0815288964658976
sg29
I0
sg28
S'a'
p2712
sg22
F3.31653844343964
sg19
I93
sg24
F3.349876591935754
sg21
I95
sa(dp2713
g30
I0
sg20
F1.699864273192361
sg27
F3.651534938486293
sg32
g40
(g69
S'\xff\xff\xff\xff'
p2714
tp2715
Rp2716
sg39
g49
sg25
I159
sg14
I218
sg17
I71
sg37
g38
sg15
F1169.632400085684
sg31
g40
(g44
S'"b\t\xd7\x95\xb7\xb8?'
p2717
tp2718
Rp2719
sg50
g55
sg23
I157
sg26
I25
sg33
g40
(g69
S'\xff\xff\xff\xff'
p2720
tp2721
Rp2722
sg18
F1.6665778197348118
sg16
F1.1828613812103868
sg29
I0
sg28
g129
sg22
F2.617321274592541
sg19
I100
sg24
F2.6506729883840308
sg21
I102
sa(dp2723
g30
I1
sg20
F2.050135360332206
sg27
F3.6181337295565754
sg32
g40
(g69
S'\x01\x00\x00\x00'
p2724
tp2725
Rp2726
sg39
g49
sg25
I195
sg14
I219
sg17
I72
sg37
g38
sg15
F1173.2852233664598
sg31
g40
(g44
S'\xc3:\xa0\xc1\xf7\x97\xb7?'
p2727
tp2728
Rp2729
sg50
g55
sg23
I193
sg26
I40
sg33
g40
(g69
S'\x01\x00\x00\x00'
p2730
tp2731
Rp2732
sg18
F2.0169189334847033
sg16
F1.199500574846752
sg29
I0
sg28
S'l'
p2733
sg22
F3.2178328718291596
sg19
I121
sg24
F3.2512212487636134
sg21
I123
sa(dp2734
g30
I1
sg20
F1.7498764452757314
sg27
F4.51883091556374
sg32
g40
(g69
S'\x01\x00\x00\x00'
p2735
tp2736
Rp2737
sg39
g49
sg25
I211
sg14
I220
sg17
I62
sg37
g38
sg15
F1176.9214239518624
sg31
g40
(g44
S'\x00\x00\x00\x00\x00\x00\x00\x00'
p2738
tp2739
Rp2740
sg50
g55
sg23
I209
sg26
F74.0
sg33
g40
(g69
S'\x01\x00\x00\x00'
p2741
tp2742
Rp2743
sg18
F1.716669550864026
sg16
F1.0328281644033268
sg29
I0
sg28
g129
sg22
F3.484681412111968
sg19
I103
sg24
F3.518043758231215
sg21
I105
sa(dp2744
g30
I0
sg20
F1.7500949575332925
sg27
F3.7350751740159467
sg32
g40
(g69
S'\x01\x00\x00\x00'
p2745
tp2746
Rp2747
sg39
g49
sg25
I164
sg14
I221
sg17
I71
sg37
g38
sg15
F1228.728261698503
sg31
g40
(g44
S'"b\t\xd7\x95\xb7\xb8?'
p2748
tp2749
Rp2750
sg50
g55
sg23
I162
sg26
I27
sg33
g40
(g69
S'\xff\xff\xff\xff'
p2751
tp2752
Rp2753
sg18
F1.7168290354311466
sg16
F1.1830087668495253
sg29
I0
sg28
g129
sg22
F2.7009315367322415
sg19
I103
sg24
F2.734355476917699
sg21
I105
sa(dp2754
g30
I1
sg20
F1.7499545377213508
sg27
F4.118649213109165
sg32
g40
(g69
S'\xff\xff\xff\xff'
p2755
tp2756
Rp2757
sg39
g49
sg25
I215
sg14
I222
sg17
I68
sg37
g38
sg15
F1232.4648070640396
sg31
g40
(g44
S'\xc3:\xa0\xc1\xf7\x97\xb7?'
p2758
tp2759
Rp2760
sg50
g55
sg23
I213
sg26
I78
sg33
g40
(g69
S'\x01\x00\x00\x00'
p2761
tp2762
Rp2763
sg18
F1.7167058472987264
sg16
F1.132918868912384
sg29
I0
sg28
S'l'
p2764
sg22
F3.551387772662565
sg19
I103
sg24
F3.5847607511095703
sg21
I105
sa(dp2765
g30
I0
sg20
F1.883264602161944
sg27
F3.5513947387225926
sg32
g40
(g69
S'\x01\x00\x00\x00'
p2766
tp2767
Rp2768
sg39
g49
sg25
I153
sg14
I223
sg17
I62
sg37
g38
sg15
F1236.6014835367678
sg31
g40
(g44
S'\xa7\xc4d\x81\x1d9\xb4?'
p2769
tp2770
Rp2771
sg50
g55
sg23
I151
sg26
I8
sg33
g40
(g69
S'\x01\x00\x00\x00'
p2772
tp2773
Rp2774
sg18
F1.8500408427789807
sg16
F1.0326569475000724
sg29
I0
sg28
g129
sg22
F2.517303896252997
sg19
I111
sg24
F2.5506284793373197
sg21
I113
sa(dp2775
g30
I1
sg20
F2.03347490192391
sg27
F3.568311105715111
sg32
g40
(g69
S'\x01\x00\x00\x00'
p2776
tp2777
Rp2778
sg39
g49
sg25
I186
sg14
I224
sg17
I70
sg37
g38
sg15
F1240.1541607517283
sg31
g40
(g44
S'\x05\xec\xcd\x96\xbbX\xb5?'
p2779
tp2780
Rp2781
sg50
g55
sg23
I184
sg26
I32
sg33
g40
(g69
S'\xff\xff\xff\xff'
p2782
tp2783
Rp2784
sg18
F2.000170483603142
sg16
F1.1663120120065287
sg29
I0
sg28
S'a'
p2785
sg22
F3.0678058878984302
sg19
I120
sg24
F3.1010358800413087
sg21
I122
sa(dp2786
g30
I1
sg20
F1.7164235413074493
sg27
F3.667979451129213
sg32
g40
(g69
S'\x01\x00\x00\x00'
p2787
tp2788
Rp2789
sg39
g49
sg25
I184
sg14
I225
sg17
I65
sg37
g38
sg15
F1243.7403715294786
sg31
g40
(g44
S'\x05\xec\xcd\x96\xbbX\xb5?'
p2790
tp2791
Rp2792
sg50
g55
sg23
I182
sg26
I49
sg33
g40
(g69
S'\xff\xff\xff\xff'
p2793
tp2794
Rp2795
sg18
F1.68317741737701
sg16
F1.0827105490025133
sg29
I0
sg28
S'a'
p2796
sg22
F3.034173701191321
sg19
I101
sg24
F3.0675030504353344
sg21
I103
sa(dp2797
g30
I1
sg20
F1.6998558405321091
sg27
F2.8841613822150975
sg32
g40
(g69
S'\x01\x00\x00\x00'
p2798
tp2799
Rp2800
sg39
g49
sg25
I141
sg14
I226
sg17
I63
sg37
g38
sg15
F1247.4265692551853
sg31
g40
(g44
S'\x05\xec\xcd\x96\xbbX\xb5?'
p2801
tp2802
Rp2803
sg50
g55
sg23
I139
sg26
I7
sg33
g40
(g69
S'\xff\xff\xff\xff'
p2804
tp2805
Rp2806
sg18
F1.6665462893433869
sg16
F1.0494882561033592
sg29
I0
sg28
S'a'
p2807
sg22
F2.317124320194125
sg19
I100
sg24
F2.3504122401354834
sg21
I102
sa(dp2808
g30
I1
sg20
F1.7998966833110899
sg27
F4.652308163815178
sg32
g40
(g69
S'\x01\x00\x00\x00'
p2809
tp2810
Rp2811
sg39
g49
sg25
I219
sg14
I227
sg17
I60
sg37
g38
sg15
F1250.3288528547855
sg31
g40
(g44
S'\x00\x00\x00\x00\x00\x00\x00\x00'
p2812
tp2813
Rp2814
sg50
g55
sg23
I217
sg26
F79.0
sg33
g40
(g69
S'\x01\x00\x00\x00'
p2815
tp2816
Rp2817
sg18
F1.7666901554912329
sg16
F0.9993917586980388
sg29
I0
sg28
g129
sg22
F3.6181069654412568
sg19
I106
sg24
F3.651495708967559
sg21
I108
sa(dp2818
g30
I1
sg20
F1.8667133999988437
sg27
F4.0184661174425855
sg32
g40
(g69
S'\xff\xff\xff\xff'
p2819
tp2820
Rp2821
sg39
g49
sg25
I215
sg14
I228
sg17
I71
sg37
g38
sg15
F1254.9824878572254
sg31
g40
(g44
S'\x05\xec\xcd\x96\xbbX\xb5?'
p2822
tp2823
Rp2824
sg50
g55
sg23
I213
sg26
I71
sg33
g40
(g69
S'\x01\x00\x00\x00'
p2825
tp2826
Rp2827
sg18
F1.833330522524193
sg16
F1.1829160092165694
sg29
I0
sg28
S'l'
p2828
sg22
F3.5513445102842525
sg19
I110
sg24
F3.5847068564035
sg21
I112
sa(dp2829
g30
I1
sg20
F1.6331619455013424
sg27
F2.6841024280292913
sg32
g40
(g69
S'\x01\x00\x00\x00'
p2830
tp2831
Rp2832
sg39
g49
sg25
I130
sg14
I229
sg17
I64
sg37
g38
sg15
F1259.0189698687755
sg31
g40
(g44
S'\xc3:\xa0\xc1\xf7\x97\xb7?'
p2833
tp2834
Rp2835
sg50
g55
sg23
I128
sg26
I0
sg33
g40
(g69
S'\xff\xff\xff\xff'
p2836
tp2837
Rp2838
sg18
F1.5999213209142908
sg16
F1.0661886773305014
sg29
I0
sg28
S'a'
p2839
sg22
F2.1338255481095985
sg19
I96
sg24
F2.167030609329231
sg21
I98
sa(dp2840
g30
I0
sg20
F1.8833177636843175
sg27
F3.9850748074240983
sg32
g40
(g69
S'\x01\x00\x00\x00'
p2841
tp2842
Rp2843
sg39
g49
sg25
I179
sg14
I230
sg17
I63
sg37
g38
sg15
F1261.7211292537395
sg31
g40
(g44
S'\x05\xec\xcd\x96\xbbX\xb5?'
p2844
tp2845
Rp2846
sg50
g55
sg23
I177
sg26
I34
sg33
g40
(g69
S'\xff\xff\xff\xff'
p2847
tp2848
Rp2849
sg18
F1.8501361669041216
sg16
F1.0494420605245978
sg29
I0
sg28
g129
sg22
F2.9509942306904122
sg19
I111
sg24
F2.9842935162596405
sg21
I113
sa(dp2850
g30
I1
sg20
F1.7500439956784248
sg27
F3.267893072683364
sg32
g40
(g69
S'\xff\xff\xff\xff'
p2851
tp2852
Rp2853
sg39
g49
sg25
I174
sg14
I231
sg17
I64
sg37
g38
sg15
F1265.7074828710174
sg31
g40
(g44
S'\x05\xec\xcd\x96\xbbX\xb5?'
p2854
tp2855
Rp2856
sg50
g55
sg23
I172
sg26
I37
sg33
g40
(g69
S'\x01\x00\x00\x00'
p2857
tp2858
Rp2859
sg18
F1.716662951395847
sg16
F1.066219107597135
sg29
I0
sg28
S'l'
p2860
sg22
F2.8675452863099054
sg19
I103
sg24
F2.900901766261086
sg21
I105
sa(dp2861
g30
I1
sg20
F1.449595898971893
sg27
F3.7515295856865123
sg32
g40
(g69
S'\x01\x00\x00\x00'
p2862
tp2863
Rp2864
sg39
g49
sg25
I165
sg14
I232
sg17
I60
sg37
g38
sg15
F1268.993416768848
sg31
g40
(g44
S'\x00\x00\x00\x00\x00\x00\x00\x00'
p2865
tp2866
Rp2867
sg50
g55
sg23
I163
sg26
F46.0
sg33
g40
(g69
S'\x01\x00\x00\x00'
p2868
tp2869
Rp2870
sg18
F1.4163534413091838
sg16
F0.9993785599945113
sg29
I0
sg28
g129
sg22
F2.7173118888167664
sg19
I85
sg24
F2.7506573698483407
sg21
I87
sa(dp2871
g30
I1
sg20
F1.8333147573284805
sg27
F3.03431852045469
sg32
g40
(g69
S'\x01\x00\x00\x00'
p2872
tp2873
Rp2874
sg39
g49
sg25
I154
sg14
I233
sg17
I65
sg37
g38
sg15
F1272.7463241548976
sg31
g40
(g44
S'\x05\xec\xcd\x96\xbbX\xb5?'
p2875
tp2876
Rp2877
sg50
g55
sg23
I152
sg26
I12
sg33
g40
(g69
S'\x01\x00\x00\x00'
p2878
tp2879
Rp2880
sg18
F1.79997587564867
sg16
F1.0827303470578045
sg29
I0
sg28
S'l'
p2881
sg22
F2.5339298913022503
sg19
I108
sg24
F2.567209378699772
sg21
I110
sa(dp2882
g30
I1
sg20
F1.5830570155521855
sg27
F3.1010894081555307
sg32
g40
(g69
S'\xff\xff\xff\xff'
p2883
tp2884
Rp2885
sg39
g49
sg25
I164
sg14
I234
sg17
I64
sg37
g38
sg15
F1275.7988378521986
sg31
g40
(g44
S'\xc3:\xa0\xc1\xf7\x97\xb7?'
p2886
tp2887
Rp2888
sg50
g55
sg23
I162
sg26
I37
sg33
g40
(g69
S'\xff\xff\xff\xff'
p2889
tp2890
Rp2891
sg18
F1.5498182241572067
sg16
F1.0660295592388138
sg29
I0
sg28
S'a'
p2892
sg22
F2.700778284808621
sg19
I93
sg24
F2.7340731708100066
sg21
I95
sa(dp2893
g30
I0
sg20
F1.7332291855709627
sg27
F3.3345950337825343
sg32
g40
(g69
S'\x01\x00\x00\x00'
p2894
tp2895
Rp2896
sg39
g49
sg25
I140
sg14
I235
sg17
I69
sg37
g38
sg15
F1278.9178954925155
sg31
g40
(g44
S'\xc3:\xa0\xc1\xf7\x97\xb7?'
p2897
tp2898
Rp2899
sg50
g55
sg23
I138
sg26
I4
sg33
g40
(g69
S'\xff\xff\xff\xff'
p2900
tp2901
Rp2902
sg18
F1.6999848948325962
sg16
F1.149440007400699
sg29
I0
sg28
g129
sg22
F2.30045616265852
sg19
I102
sg24
F2.3338078764500096
sg21
I104
sa(dp2903
g30
I1
sg20
F1.6331967754522339
sg27
F3.885055596008897
sg32
g40
(g69
S'\xff\xff\xff\xff'
p2904
tp2905
Rp2906
sg39
g49
sg25
I176
sg14
I236
sg17
I68
sg37
g38
sg15
F1282.2537840014556
sg31
g40
(g44
S'\xc3:\xa0\xc1\xf7\x97\xb7?'
p2907
tp2908
Rp2909
sg50
g55
sg23
I174
sg26
I46
sg33
g40
(g69
S'\xff\xff\xff\xff'
p2910
tp2911
Rp2912
sg18
F1.5999447853537276
sg16
F1.132918135728687
sg29
I0
sg28
S'a'
p2913
sg22
F2.9010007567703724
sg19
I96
sg24
F2.934240281349048
sg21
I98
sa(dp2914
g30
I1
sg20
F1.5496811041375622
sg27
F3.251063963980414
sg32
g40
(g69
S'\xff\xff\xff\xff'
p2915
tp2916
Rp2917
sg39
g49
sg25
I176
sg14
I237
sg17
I64
sg37
g38
sg15
F1286.1569200187223
sg31
g40
(g44
S'\xc3:\xa0\xc1\xf7\x97\xb7?'
p2918
tp2919
Rp2920
sg50
g55
sg23
I174
sg26
I51
sg33
g40
(g69
S'\x01\x00\x00\x00'
p2921
tp2922
Rp2923
sg18
F1.5163484551012516
sg16
F1.0660940863890573
sg29
I0
sg28
S'l'
p2924
sg22
F2.9007947099162266
sg19
I91
sg24
F2.9341563227353618
sg21
I93
sa(dp2925
g30
I0
sg20
F1.5663290970260277
sg27
F3.6346907978877425
sg32
g40
(g69
S'\x01\x00\x00\x00'
p2926
tp2927
Rp2928
sg39
g49
sg25
I158
sg14
I238
sg17
I67
sg37
g38
sg15
F1289.426180259441
sg31
g40
(g44
S'\x05\xec\xcd\x96\xbbX\xb5?'
p2929
tp2930
Rp2931
sg50
g55
sg23
I156
sg26
I32
sg33
g40
(g69
S'\x01\x00\x00\x00'
p2932
tp2933
Rp2934
sg18
F1.5330650081159547
sg16
F1.116113591240719
sg29
I0
sg28
g129
sg22
F2.6005288290325552
sg19
I92
sg24
F2.633978799916804
sg21
I94
sa(dp2935
g30
I1
sg20
F1.5498552540084347
sg27
F2.63415331649594
sg32
g40
(g69
S'\xff\xff\xff\xff'
p2936
tp2937
Rp2938
sg39
g49
sg25
I127
sg14
I239
sg17
I63
sg37
g38
sg15
F1293.0621608661022
sg31
g40
(g44
S'\xc3:\xa0\xc1\xf7\x97\xb7?'
p2939
tp2940
Rp2941
sg50
g55
sg23
I125
sg26
I2
sg33
g40
(g69
S'\xff\xff\xff\xff'
p2942
tp2943
Rp2944
sg18
F1.516581266070716
sg16
F1.0495791806606576
sg29
I0
sg28
S'a'
p2945
sg22
F2.0837231846526265
sg19
I91
sg24
F2.1170158707536757
sg21
I93
sa(dp2946
g30
I1
sg20
F1.766557068331167
sg27
F3.4679377283900976
sg32
g40
(g69
S'\x01\x00\x00\x00'
p2947
tp2948
Rp2949
sg39
g49
sg25
I184
sg14
I240
sg17
I69
sg37
g38
sg15
F1295.7143704061164
sg31
g40
(g44
S'\xc3:\xa0\xc1\xf7\x97\xb7?'
p2950
tp2951
Rp2952
sg50
g55
sg23
I182
sg26
I46
sg33
g40
(g69
S'\xff\xff\xff\xff'
p2953
tp2954
Rp2955
sg18
F1.7333626394392923
sg16
F1.1495283655822277
sg29
I0
sg28
S'a'
p2956
sg22
F3.0342668254161254
sg19
I104
sg24
F3.067644203430973
sg21
I106
sa(dp2957
g30
I1
sg20
F1.633177343988791
sg27
F3.034494503517635
sg32
g40
(g69
S'\xff\xff\xff\xff'
p2958
tp2959
Rp2960
sg39
g49
sg25
I157
sg14
I241
sg17
I69
sg37
g38
sg15
F1299.2003650914412
sg31
g40
(g44
S'"b\t\xd7\x95\xb7\xb8?'
p2961
tp2962
Rp2963
sg50
g55
sg23
I155
sg26
I27
sg33
g40
(g69
S'\xff\xff\xff\xff'
p2964
tp2965
Rp2966
sg18
F1.599842861876823
sg16
F1.1495426641777158
sg29
I0
sg28
S'a'
p2967
sg22
F2.584073317470029
sg19
I96
sg24
F2.617431264021434
sg21
I98
sa(dp2968
g30
I1
sg20
F1.8833441612077877
sg27
F3.6515023083193228
sg32
g40
(g69
S'\x01\x00\x00\x00'
p2969
tp2970
Rp2971
sg39
g49
sg25
I196
sg14
I242
sg17
I62
sg37
g38
sg15
F1302.252823060844
sg31
g40
(g44
S'\xa7\xc4d\x81\x1d9\xb4?'
p2972
tp2973
Rp2974
sg50
g55
sg23
I194
sg26
I51
sg33
g40
(g69
S'\x01\x00\x00\x00'
p2975
tp2976
Rp2977
sg18
F1.850099137169309
sg16
F1.0327911345520988
sg29
I0
sg28
S'l'
p2978
sg22
F3.2345824217190966
sg19
I111
sg24
F3.2678743745200336
sg21
I113
sa(dp2979
g30
I1
sg20
F1.7832534565823153
sg27
F3.367882587132044
sg32
g40
(g69
S'\x01\x00\x00\x00'
p2980
tp2981
Rp2982
sg39
g49
sg25
I179
sg14
I243
sg17
I69
sg37
g38
sg15
F1305.9223753600381
sg31
g40
(g44
S'\xc3:\xa0\xc1\xf7\x97\xb7?'
p2983
tp2984
Rp2985
sg50
g55
sg23
I177
sg26
I40
sg33
g40
(g69
S'\xff\xff\xff\xff'
p2986
tp2987
Rp2988
sg18
F1.7500102657359093
sg16
F1.149530565366149
sg29
I0
sg28
S'a'
p2989
sg22
F2.950927870464511
sg19
I105
sg24
F2.9842143239220604
sg21
I107
sa(dp2990
g30
I1
sg20
F1.783242457662709
sg27
F4.068462524446659
sg32
g40
(g69
S'\xff\xff\xff\xff'
p2991
tp2992
Rp2993
sg39
g49
sg25
I216
sg14
I244
sg17
I69
sg37
g38
sg15
F1309.3083680656273
sg31
g40
(g44
S'\xc3:\xa0\xc1\xf7\x97\xb7?'
p2994
tp2995
Rp2996
sg50
g55
sg23
I214
sg26
I77
sg33
g40
(g69
S'\xff\xff\xff\xff'
p2997
tp2998
Rp2999
sg18
F1.749998533516191
sg16
F1.1495239660143852
sg29
I0
sg28
S'a'
p3000
sg22
F3.5680841610301286
sg19
I105
sg24
F3.6014417408732697
sg21
I107
sa(dp3001
g30
I1
sg20
F1.8499550509732217
sg27
F3.8183386030141264
sg32
g40
(g69
S'\xff\xff\xff\xff'
p3002
tp3003
Rp3004
sg39
g49
sg25
I205
sg14
I245
sg17
I63
sg37
g38
sg15
F1313.3949029453797
sg31
g40
(g44
S'\xc3:\xa0\xc1\xf7\x97\xb7?'
p3005
tp3006
Rp3007
sg50
g55
sg23
I203
sg26
I62
sg33
g40
(g69
S'\xff\xff\xff\xff'
p3008
tp3009
Rp3010
sg18
F1.8167133264942095
sg16
F1.0494823899352923
sg29
I0
sg28
S'a'
p3011
sg22
F3.384647168684751
sg19
I109
sg24
F3.4179618527414277
sg21
I111
sa(dp3012
g30
I0
sg20
F1.9833622727310285
sg27
F4.585544242057949
sg32
g40
(g69
S'\xff\xff\xff\xff'
p3013
tp3014
Rp3015
sg39
g49
sg25
I215
sg14
I246
sg17
I68
sg37
g38
sg15
F1317.2312442439143
sg31
g40
(g44
S'\xa7\xc4d\x81\x1d9\xb4?'
p3016
tp3017
Rp3018
sg50
g55
sg23
I213
sg26
I64
sg33
g40
(g69
S'\xff\xff\xff\xff'
p3019
tp3020
Rp3021
sg18
F1.9500670201377943
sg16
F1.1327498517930508
sg29
I0
sg28
g129
sg22
F3.5514193029375747
sg19
I117
sg24
F3.5846918243914843
sg21
I119
sa(dp3022
g30
I0
sg20
F1.8833720250986516
sg27
F3.601461538928561
sg32
g40
(g69
S'\xff\xff\xff\xff'
p3023
tp3024
Rp3025
sg39
g49
sg25
I156
sg14
I247
sg17
I71
sg37
g38
sg15
F1321.8180702290265
sg31
g40
(g44
S'\x05\xec\xcd\x96\xbbX\xb5?'
p3026
tp3027
Rp3028
sg50
g55
sg23
I154
sg26
I11
sg33
g40
(g69
S'\xff\xff\xff\xff'
p3029
tp3030
Rp3031
sg18
F1.8501233346760273
sg16
F1.1829420399153605
sg29
I0
sg28
g129
sg22
F2.567268406273797
sg19
I111
sg24
F2.6006974793272093
sg21
I113
sa(dp3032
g30
I1
sg20
F1.9000775791937485
sg27
F3.4180637762183324
sg32
g40
(g69
S'\xff\xff\xff\xff'
p3033
tp3034
Rp3035
sg39
g49
sg25
I180
sg14
I248
sg17
I69
sg37
g38
sg15
F1325.4208586064633
sg31
g40
(g44
S'\xa7\xc4d\x81\x1d9\xb4?'
p3036
tp3037
Rp3038
sg50
g55
sg23
I178
sg26
I34
sg33
g40
(g69
S'\x01\x00\x00\x00'
p3039
tp3040
Rp3041
sg18
F1.8668083574157208
sg16
F1.1495789606124163
sg29
I0
sg28
S'l'
p3042
sg22
F2.9676033606519923
sg19
I112
sg24
F3.001012635533698
sg21
I114
sa(dp3043
g30
I1
sg20
F1.8666430066805333
sg27
F4.13520811451599
sg32
g40
(g69
S'\x01\x00\x00\x00'
p3044
tp3045
Rp3046
sg39
g49
sg25
I188
sg14
I249
sg17
I64
sg37
g38
sg15
F1328.856995471404
sg31
g40
(g44
S'\x00\x00\x00\x00\x00\x00\x00\x00'
p3047
tp3048
Rp3049
sg50
g55
sg23
I186
sg26
F44.0
sg33
g40
(g69
S'\x01\x00\x00\x00'
p3050
tp3051
Rp3052
sg18
F1.8333957828581333
sg16
F1.06613111612387
sg29
I0
sg28
g129
sg22
F3.101055311388336
sg19
I110
sg24
F3.1344249901594594
sg21
I112
sa(dp3053
g30
I0
sg20
F1.6832731080939993
sg27
F3.8182817752240226
sg32
g40
(g69
S'\x01\x00\x00\x00'
p3054
tp3055
Rp3056
sg39
g49
sg25
I169
sg14
I250
sg17
I65
sg37
g38
sg15
F1332.9934864288662
sg31
g40
(g44
S'\xc3:\xa0\xc1\xf7\x97\xb7?'
p3057
tp3058
Rp3059
sg50
g55
sg23
I167
sg26
I36
sg33
g40
(g69
S'\x01\x00\x00\x00'
p3060
tp3061
Rp3062
sg18
F1.6499136950587854
sg16
F1.0828099061036482
sg29
I0
sg28
g129
sg22
F2.7841682016151026
sg19
I99
sg24
F2.817566477577202
sg21
I101
sa(dp3063
g30
I1
sg20
F1.766679523163475
sg27
F3.901742085115984
sg32
g40
(g69
S'\x01\x00\x00\x00'
p3064
tp3065
Rp3066
sg39
g49
sg25
I206
sg14
I251
sg17
I67
sg37
g38
sg15
F1336.8130660786992
sg31
g40
(g44
S'\xc3:\xa0\xc1\xf7\x97\xb7?'
p3067
tp3068
Rp3069
sg50
g55
sg23
I204
sg26
I68
sg33
g40
(g69
S'\x01\x00\x00\x00'
p3070
tp3071
Rp3072
sg18
F1.7333993024658412
sg16
F1.1163082723505795
sg29
I0
sg28
S'l'
p3073
sg22
F3.401423482573591
sg19
I104
sg24
F3.434713235590607
sg21
I106
sa(dp3074
g30
I0
sg20
F1.683122789254412
sg27
F3.5513236122205853
sg32
g40
(g69
S'\x01\x00\x00\x00'
p3075
tp3076
Rp3077
sg39
g49
sg25
I153
sg14
I252
sg17
I64
sg37
g38
sg15
F1340.732961544767
sg31
g40
(g44
S'\xc3:\xa0\xc1\xf7\x97\xb7?'
p3078
tp3079
Rp3080
sg50
g55
sg23
I151
sg26
I20
sg33
g40
(g69
S'\x01\x00\x00\x00'
p3081
tp3082
Rp3083
sg18
F1.6498565005604178
sg16
F1.0660493574105203
sg29
I0
sg28
g129
sg22
F2.5171755753690377
sg19
I99
sg24
F2.5505639523034915
sg21
I101
sa(dp3084
g30
I0
sg20
F1.9501957077300176
sg27
F4.135280707618222
sg32
g40
(g69
S'\x01\x00\x00\x00'
p3085
tp3086
Rp3087
sg39
g49
sg25
I188
sg14
I253
sg17
I68
sg37
g38
sg15
F1344.2855793654453
sg31
g40
(g44
S'\xa7\xc4d\x81\x1d9\xb4?'
p3088
tp3089
Rp3090
sg50
g55
sg23
I186
sg26
I39
sg33
g40
(g69
S'\xff\xff\xff\xff'
p3091
tp3092
Rp3093
sg18
F1.9169873468345031
sg16
F1.1330006276257336
sg29
I0
sg28
g129
sg22
F3.101206730119884
sg19
I115
sg24
F3.134568709647283
sg21
I117
sa(dp3094
g30
I1
sg20
F1.7666982213268057
sg27
F3.818436493515037
sg32
g40
(g69
S'\x01\x00\x00\x00'
p3095
tp3096
Rp3097
sg39
g49
sg25
I202
sg14
I254
sg17
I69
sg37
g38
sg15
F1348.4221524482127
sg31
g40
(g44
S'\xc3:\xa0\xc1\xf7\x97\xb7?'
p3098
tp3099
Rp3100
sg50
g55
sg23
I200
sg26
I64
sg33
g40
(g69
S'\x01\x00\x00\x00'
p3101
tp3102
Rp3103
sg18
F1.7335140580544248
sg16
F1.149618556839414
sg29
I0
sg28
S'l'
p3104
sg22
F3.334635363193229
sg19
I104
sg24
F3.3680021088803187
sg21
I106
sa(dp3105
g30
I1
sg20
F1.516385851544328
sg27
F3.2344343025470152
sg32
g40
(g69
S'\x01\x00\x00\x00'
p3106
tp3107
Rp3108
sg39
g49
sg25
I169
sg14
I255
sg17
I64
sg37
g38
sg15
F1352.2586352664512
sg31
g40
(g44
S'"b\t\xd7\x95\xb7\xb8?'
p3109
tp3110
Rp3111
sg50
g55
sg23
I167
sg26
I46
sg33
g40
(g69
S'\x01\x00\x00\x00'
p3112
tp3113
Rp3114
sg18
F1.4831708911806345
sg16
F1.0661138844443485
sg29
I0
sg28
S'l'
p3115
sg22
F2.784157569287345
sg19
I89
sg24
F2.8174627209082246
sg21
I91
sa(dp3116
g30
I0
sg20
F1.8999917875044048
sg27
F3.6848338573472574
sg32
g40
(g69
S'\xff\xff\xff\xff'
p3117
tp3118
Rp3119
sg39
g49
sg25
I161
sg14
I256
sg17
I63
sg37
g38
sg15
F1355.5112049850868
sg31
g40
(g44
S'\xc3:\xa0\xc1\xf7\x97\xb7?'
p3120
tp3121
Rp3122
sg50
g55
sg23
I159
sg26
I15
sg33
g40
(g69
S'\xff\xff\xff\xff'
p3123
tp3124
Rp3125
sg18
F1.8666734370635822
sg16
F1.0494222624693066
sg29
I0
sg28
g129
sg22
F2.650763912941329
sg19
I112
sg24
F2.6840492663905025
sg21
I114
sa(dp3126
g30
I1
sg20
F1.5331394342938438
sg27
F2.8175947081763297
sg32
g40
(g69
S'\xff\xff\xff\xff'
p3127
tp3128
Rp3129
sg39
g49
sg25
I145
sg14
I257
sg17
I60
sg37
g38
sg15
F1359.197316185804
sg31
g40
(g44
S'\xc3:\xa0\xc1\xf7\x97\xb7?'
p3130
tp3131
Rp3132
sg50
g55
sg23
I143
sg26
I21
sg33
g40
(g69
S'\x01\x00\x00\x00'
p3133
tp3134
Rp3135
sg18
F1.499890377279371
sg16
F0.9995310786180198
sg29
I0
sg28
S'l'
p3136
sg22
F2.3839216054184362
sg19
I90
sg24
F2.4172729526180774
sg21
I92
sa(dp3137
g30
I1
sg20
F1.933375031570904
sg27
F3.9349750104593113
sg32
g40
(g69
S'\x01\x00\x00\x00'
p3138
tp3139
Rp3140
sg39
g49
sg25
I215
sg14
I258
sg17
I71
sg37
g38
sg15
F1362.0329517191276
sg31
g40
(g44
S'\xa7\xc4d\x81\x1d9\xb4?'
p3141
tp3142
Rp3143
sg50
g55
sg23
I213
sg26
I67
sg33
g40
(g69
S'\x01\x00\x00\x00'
p3144
tp3145
Rp3146
sg18
F1.9001344071002677
sg16
F1.1829006107291207
sg29
I0
sg28
S'l'
p3147
sg22
F3.5513060139492154
sg19
I114
sg24
F3.584707956179045
sg21
I116
sa(dp3148
g30
I0
sg20
F1.7498966100392863
sg27
F3.451368927839212
sg32
g40
(g69
S'\xff\xff\xff\xff'
p3149
tp3150
Rp3151
sg39
g49
sg25
I147
sg14
I259
sg17
I67
sg37
g38
sg15
F1365.9860232826322
sg31
g40
(g44
S'\x05\xec\xcd\x96\xbbX\xb5?'
p3152
tp3153
Rp3154
sg50
g55
sg23
I145
sg26
I10
sg33
g40
(g69
S'\x01\x00\x00\x00'
p3155
tp3156
Rp3157
sg18
F1.7166526857763529
sg16
F1.1161817846586928
sg29
I0
sg28
g129
sg22
F2.4171640630811453
sg19
I103
sg24
F2.4505601392593235
sg21
I105
sa(dp3158
g30
I0
sg20
F1.9334179274737835
sg27
F3.8016620129346848
sg32
g40
(g69
S'\xff\xff\xff\xff'
p3159
tp3160
Rp3161
sg39
g49
sg25
I168
sg14
I260
sg17
I68
sg37
g38
sg15
F1369.438676519785
sg31
g40
(g44
S'\x05\xec\xcd\x96\xbbX\xb5?'
p3162
tp3163
Rp3164
sg50
g55
sg23
I166
sg26
I20
sg33
g40
(g69
S'\xff\xff\xff\xff'
p3165
tp3166
Rp3167
sg18
F1.9001666706753895
sg16
F1.1329042037250474
sg29
I0
sg28
g129
sg22
F2.7675264414865524
sg19
I114
sg24
F2.8008865878218785
sg21
I116
sa(dp3168
g30
I1
sg20
F1.549818224273622
sg27
F2.584076617145911
sg32
g40
(g69
S'\x01\x00\x00\x00'
p3169
tp3170
Rp3171
sg39
g49
sg25
I130
sg14
I261
sg17
I60
sg37
g38
sg15
F1373.2416444732808
sg31
g40
(g44
S'\xc3:\xa0\xc1\xf7\x97\xb7?'
p3172
tp3173
Rp3174
sg50
g55
sg23
I128
sg26
I5
sg33
g40
(g69
S'\x01\x00\x00\x00'
p3175
tp3176
Rp3177
sg18
F1.516574300127104
sg16
F0.9995010148268193
sg29
I0
sg28
S'l'
p3178
sg22
F2.133719958248548
sg19
I91
sg24
F2.1671200674027205
sg21
I93
sa(dp3179
g30
I1
sg20
F1.5664236878510565
sg27
F3.8683364765020087
sg32
g40
(g69
S'\x01\x00\x00\x00'
p3180
tp3181
Rp3182
sg39
g49
sg25
I189
sg14
I262
sg17
I64
sg37
g38
sg15
F1375.843758615898
sg31
g40
(g44
S'\x05\xec\xcd\x96\xbbX\xb5?'
p3183
tp3184
Rp3185
sg50
g55
sg23
I187
sg26
I63
sg33
g40
(g69
S'\xff\xff\xff\xff'
p3186
tp3187
Rp3188
sg18
F1.5332006616517901
sg16
F1.0661424816353247
sg29
I0
sg28
S'a'
p3189
sg22
F3.117742533911951
sg19
I92
sg24
F3.1511125792749226
sg21
I94
sa(dp3190
g30
I1
sg20
F1.69982174388133
sg27
F2.8174465891206637
sg32
g40
(g69
S'\xff\xff\xff\xff'
p3191
tp3192
Rp3193
sg39
g49
sg25
I146
sg14
I263
sg17
I61
sg37
g38
sg15
F1379.730142150307
sg31
g40
(g44
S'\x05\xec\xcd\x96\xbbX\xb5?'
p3194
tp3195
Rp3196
sg50
g55
sg23
I144
sg26
I12
sg33
g40
(g69
S'\xff\xff\xff\xff'
p3197
tp3198
Rp3199
sg18
F1.6664722298737615
sg16
F1.0159810906043276
sg29
I0
sg28
S'a'
p3200
sg22
F2.400428445311263
sg19
I100
sg24
F2.4338076564017683
sg21
I102
sa(dp3201
g30
I0
sg20
F1.6997916802065447
sg27
F4.351917261607014
sg32
g40
(g69
S'\xff\xff\xff\xff'
p3202
tp3203
Rp3204
sg39
g49
sg25
I201
sg14
I264
sg17
I66
sg37
g38
sg15
F1382.5657402871875
sg31
g40
(g44
S'\x05\xec\xcd\x96\xbbX\xb5?'
p3205
tp3206
Rp3207
sg50
g55
sg23
I199
sg26
I67
sg33
g40
(g69
S'\xff\xff\xff\xff'
p3208
tp3209
Rp3210
sg18
F1.66647772944998
sg16
F1.099364774650894
sg29
I0
sg28
g129
sg22
F3.3178392512490973
sg19
I100
sg24
F3.351199764176272
sg21
I102
sa(dp3211
g30
I0
sg20
F1.783516331226565
sg27
F3.651671691914089
sg32
g40
(g69
S'\x01\x00\x00\x00'
p3212
tp3213
Rp3214
sg39
g49
sg25
I159
sg14
I265
sg17
I61
sg37
g38
sg15
F1394.5914184084395
sg31
g40
(g44
S'\x05\xec\xcd\x96\xbbX\xb5?'
p3215
tp3216
Rp3217
sg50
g55
sg23
I157
sg26
I20
sg33
g40
(g69
S'\xff\xff\xff\xff'
p3218
tp3219
Rp3220
sg18
F1.75026654091198
sg16
F1.0163913510041311
sg29
I0
sg28
g129
sg22
F2.6175819494528696
sg19
I105
sg24
F2.650977658922784
sg21
I107
sa(dp3221
g30
I1
sg20
F1.7833773780148476
sg27
F3.584931601304561
sg32
g40
(g69
S'\xff\xff\xff\xff'
p3222
tp3223
Rp3224
sg39
g49
sg25
I193
sg14
I266
sg17
I72
sg37
g38
sg15
F1398.2444686340168
sg31
g40
(g44
S'\xc3:\xa0\xc1\xf7\x97\xb7?'
p3225
tp3226
Rp3227
sg50
g55
sg23
I191
sg26
I54
sg33
g40
(g69
S'\xff\xff\xff\xff'
p3228
tp3229
Rp3230
sg18
F1.7500923910411075
sg16
F1.1996384281665087
sg29
I0
sg28
S'a'
p3231
sg22
F3.1846230443334207
sg19
I105
sg24
F3.217979157692753
sg21
I107
sa(dp3232
g30
I1
sg20
F1.8666980013949797
sg27
F3.5347181485267356
sg32
g40
(g69
S'\xff\xff\xff\xff'
p3233
tp3234
Rp3235
sg39
g49
sg25
I189
sg14
I267
sg17
I65
sg37
g38
sg15
F1401.847352702287
sg31
g40
(g44
S'\x05\xec\xcd\x96\xbbX\xb5?'
p3236
tp3237
Rp3238
sg50
g55
sg23
I187
sg26
I45
sg33
g40
(g69
S'\xff\xff\xff\xff'
p3239
tp3240
Rp3241
sg18
F1.8333800176624209
sg16
F1.0827989070676267
sg29
I0
sg28
S'a'
p3242
sg22
F3.1178565562004223
sg19
I110
sg24
F3.1511558417696506
sg21
I112
sa(dp3243
g30
I1
sg20
F1.5830577487358823
sg27
F3.184500956092961
sg32
g40
(g69
S'\xff\xff\xff\xff'
p3244
tp3245
Rp3246
sg39
g49
sg25
I170
sg14
I268
sg17
I63
sg37
g38
sg15
F1405.4002465961967
sg31
g40
(g44
S'\x05\xec\xcd\x96\xbbX\xb5?'
p3247
tp3248
Rp3249
sg50
g55
sg23
I168
sg26
I43
sg33
g40
(g69
S'\x01\x00\x00\x00'
p3250
tp3251
Rp3252
sg18
F1.5498233570251614
sg16
F1.0494284951128066
sg29
I0
sg28
S'l'
p3253
sg22
F2.8007300361059606
sg19
I93
sg24
F2.8340901824412867
sg21
I95
sa(dp3254
g30
I1
sg20
F1.6832170134875923
sg27
F3.367917783674784
sg32
g40
(g69
S'\xff\xff\xff\xff'
p3255
tp3256
Rp3257
sg39
g49
sg25
I142
sg14
I269
sg17
I72
sg37
g38
sg15
F1408.6026717887726
sg31
g40
(g44
S'\x00\x00\x00\x00\x00\x00\x00\x00'
p3258
tp3259
Rp3260
sg50
g55
sg23
I140
sg26
F9.0
sg33
g40
(g69
S'\xff\xff\xff\xff'
p3261
tp3262
Rp3263
sg18
F1.649906728998758
sg16
F1.1996219297870994
sg29
I0
sg28
g129
sg22
F2.3338449061848223
sg19
I99
sg24
F2.367227783659473
sg21
I101
sa(dp3264
g30
I1
sg20
F2.0000212646555156
sg27
F3.768214241717942
sg32
g40
(g69
S'\xff\xff\xff\xff'
p3265
tp3266
Rp3267
sg39
g49
sg25
I205
sg14
I270
sg17
I70
sg37
g38
sg15
F1411.9718991793925
sg31
g40
(g44
S'"b\t\xd7\x95\xb7\xb8?'
p3268
tp3269
Rp3270
sg50
g55
sg23
I203
sg26
I53
sg33
g40
(g69
S'\xff\xff\xff\xff'
p3271
tp3272
Rp3273
sg18
F1.9668543330626562
sg16
F1.16610926494468
sg29
I0
sg28
S'a'
p3274
sg22
F3.384591074194759
sg19
I118
sg24
F3.417855896288529
sg21
I120
sa(dp3275
g30
I1
sg20
F1.6664505986263976
sg27
F2.8341730411630124
sg32
g40
(g69
S'\x01\x00\x00\x00'
p3276
tp3277
Rp3278
sg39
g49
sg25
I143
sg14
I271
sg17
I63
sg37
g38
sg15
F1415.758365059155
sg31
g40
(g44
S'\x05\xec\xcd\x96\xbbX\xb5?'
p3279
tp3280
Rp3281
sg50
g55
sg23
I141
sg26
I11
sg33
g40
(g69
S'\x01\x00\x00\x00'
p3282
tp3283
Rp3284
sg18
F1.63314618030563
sg16
F1.0494240956613794
sg29
I0
sg28
S'l'
p3285
sg22
F2.3504555027466267
sg19
I98
sg24
F2.38381381588988
sg21
I100
sa(dp3286
g30
I0
sg20
F1.8666213754331693
sg27
F3.6848826193017885
sg32
g40
(g69
S'\x01\x00\x00\x00'
p3287
tp3288
Rp3289
sg39
g49
sg25
I161
sg14
I272
sg17
I66
sg37
g38
sg15
F1418.6106067894725
sg31
g40
(g44
S'\xc3:\xa0\xc1\xf7\x97\xb7?'
p3290
tp3291
Rp3292
sg50
g55
sg23
I159
sg26
I17
sg33
g40
(g69
S'\xff\xff\xff\xff'
p3293
tp3294
Rp3295
sg18
F1.833376717986539
sg16
F1.0994659648276865
sg29
I0
sg28
g129
sg22
F2.6506755547598004
sg19
I110
sg24
F2.684079330181703
sg21
I112
sa(dp3296
g30
I0
sg20
F1.8166385338408872
sg27
F3.7682780355680734
sg32
g40
(g69
S'\x01\x00\x00\x00'
p3297
tp3298
Rp3299
sg39
g49
sg25
I166
sg14
I273
sg17
I62
sg37
g38
sg15
F1422.2967638190603
sg31
g40
(g44
S'\x05\xec\xcd\x96\xbbX\xb5?'
p3300
tp3301
Rp3302
sg50
g55
sg23
I164
sg26
I25
sg33
g40
(g69
S'\x01\x00\x00\x00'
p3303
tp3304
Rp3305
sg18
F1.7833975426619872
sg16
F1.0328501622425392
sg29
I0
sg28
g129
sg22
F2.7341435640119016
sg19
I107
sg24
F2.7675000440794975
sg21
I109
sa(dp3306
g30
I1
sg20
F2.0001781827304512
sg27
F4.185334675596096
sg32
g40
(g69
S'\xff\xff\xff\xff'
p3307
tp3308
Rp3309
sg39
g49
sg25
I212
sg14
I274
sg17
I68
sg37
g38
sg15
F1426.0663199312985
sg31
g40
(g44
S'\x05\xec\xcd\x96\xbbX\xb5?'
p3310
tp3311
Rp3312
sg50
g55
sg23
I210
sg26
I60
sg33
g40
(g69
S'\x01\x00\x00\x00'
p3313
tp3314
Rp3315
sg18
F1.966926192631945
sg16
F1.1329430665355176
sg29
I0
sg28
S'l'
p3316
sg22
F3.501375233870931
sg19
I118
sg24
F3.5347716766409576
sg21
I120
sa(dp3317
g30
I1
sg20
F1.7997665291186422
sg27
F3.1008269001031294
sg32
g40
(g69
S'\xff\xff\xff\xff'
p3318
tp3319
Rp3320
sg39
g49
sg25
I164
sg14
I275
sg17
I71
sg37
g38
sg15
F1430.2698464841815
sg31
g40
(g44
S'\xc3:\xa0\xc1\xf7\x97\xb7?'
p3321
tp3322
Rp3323
sg50
g55
sg23
I162
sg26
I24
sg33
g40
(g69
S'\xff\xff\xff\xff'
p3324
tp3325
Rp3326
sg18
F1.7664503785781562
sg16
F1.1826619337080047
sg29
I0
sg28
S'a'
p3327
sg22
F2.7006514304084703
sg19
I106
sg24
F2.7339481494855136
sg21
I108
sa(dp3328
g30
I1
sg20
F1.8499444187618792
sg27
F3.8682481184368953
sg32
g40
(g69
S'\xff\xff\xff\xff'
p3329
tp3330
Rp3331
sg39
g49
sg25
I172
sg14
I276
sg17
I64
sg37
g38
sg15
F1433.3888022010215
sg31
g40
(g44
S'\x00\x00\x00\x00\x00\x00\x00\x00'
p3332
tp3333
Rp3334
sg50
g55
sg23
I170
sg26
F29.0
sg33
g40
(g69
S'\xff\xff\xff\xff'
p3335
tp3336
Rp3337
sg18
F1.816711493418552
sg16
F1.0661245167721063
sg29
I0
sg28
g129
sg22
F2.834109247312881
sg19
I109
sg24
F2.8674481289926916
sg21
I111
sa(dp3338
g30
I1
sg20
F1.900051548378542
sg27
F3.6181777252350003
sg32
g40
(g69
S'\xff\xff\xff\xff'
p3339
tp3340
Rp3341
sg39
g49
sg25
I192
sg14
I277
sg17
I67
sg37
g38
sg15
F1437.2583342621801
sg31
g40
(g44
S'\x05\xec\xcd\x96\xbbX\xb5?'
p3342
tp3343
Rp3344
sg50
g55
sg23
I190
sg26
I46
sg33
g40
(g69
S'\x01\x00\x00\x00'
p3345
tp3346
Rp3347
sg18
F1.8668057910399511
sg16
F1.1162243138533086
sg29
I0
sg28
S'l'
p3348
sg22
F3.1678291321732104
sg19
I112
sg24
F3.201124018174596
sg21
I114
sa(dp3349
g30
I0
sg20
F1.5997101413086057
sg27
F3.985013580066152
sg32
g40
(g69
S'\xff\xff\xff\xff'
p3350
tp3351
Rp3352
sg39
g49
sg25
I179
sg14
I278
sg17
I64
sg37
g38
sg15
F1440.8947397945449
sg31
g40
(g44
S'\x05\xec\xcd\x96\xbbX\xb5?'
p3353
tp3354
Rp3355
sg50
g55
sg23
I177
sg26
I51
sg33
g40
(g69
S'\xff\xff\xff\xff'
p3356
tp3357
Rp3358
sg18
F1.5664636506699026
sg16
F1.0660654890816659
sg29
I0
sg28
g129
sg22
F2.9508761754259467
sg19
I94
sg24
F2.9842381548369303
sg21
I96
sa(dp3359
g30
I1
sg20
F1.6164512585382909
sg27
F3.751566615421325
sg32
g40
(g69
S'\xff\xff\xff\xff'
p3360
tp3361
Rp3362
sg39
g49
sg25
I165
sg14
I279
sg17
I66
sg37
g38
sg15
F1444.8810406168923
sg31
g40
(g44
S'\x00\x00\x00\x00\x00\x00\x00\x00'
p3363
tp3364
Rp3365
sg50
g55
sg23
I163
sg26
F36.0
sg33
g40
(g69
S'\xff\xff\xff\xff'
p3366
tp3367
Rp3368
sg18
F1.5832003683317453
sg16
F1.0994842963991687
sg29
I0
sg28
g129
sg22
F2.7174215115373954
sg19
I95
sg24
F2.7508744155056775
sg21
I97
sa(dp3369
g30
I1
sg20
F1.566494814469479
sg27
F2.5340281485114247
sg32
g40
(g69
S'\xff\xff\xff\xff'
p3370
tp3371
Rp3372
sg39
g49
sg25
I128
sg14
I280
sg17
I62
sg37
g38
sg15
F1448.6339905321365
sg31
g40
(g44
S'"b\t\xd7\x95\xb7\xb8?'
p3373
tp3374
Rp3375
sg50
g55
sg23
I126
sg26
I2
sg33
g40
(g69
S'\x01\x00\x00\x00'
p3376
tp3377
Rp3378
sg18
F1.533248323830776
sg16
F1.0328556617023423
sg29
I0
sg28
S'l'
p3379
sg22
F2.1003627449972555
sg19
I92
sg24
F2.133719958248548
sg21
I94
sa(dp3380
g30
I0
sg20
F1.6831627519568428
sg27
F3.451329698320478
sg32
g40
(g69
S'\x01\x00\x00\x00'
p3381
tp3382
Rp3383
sg39
g49
sg25
I147
sg14
I281
sg17
I71
sg37
g38
sg15
F1451.18609030277
sg31
g40
(g44
S'\x05\xec\xcd\x96\xbbX\xb5?'
p3384
tp3385
Rp3386
sg50
g55
sg23
I145
sg26
I14
sg33
g40
(g69
S'\x01\x00\x00\x00'
p3387
tp3388
Rp3389
sg18
F1.6499892210122198
sg16
F1.182884112233296
sg29
I0
sg28
g129
sg22
F2.4172505880706012
sg19
I99
sg24
F2.4506107344059274
sg21
I101
sa(dp3390
g30
I1
sg20
F1.6332411378389224
sg27
F3.5014687249204144
sg32
g40
(g69
S'\xff\xff\xff\xff'
p3391
tp3392
Rp3393
sg39
g49
sg25
I180
sg14
I282
sg17
I71
sg37
g38
sg15
F1454.6386856122408
sg31
g40
(g44
S'\x05\xec\xcd\x96\xbbX\xb5?'
p3394
tp3395
Rp3396
sg50
g55
sg23
I178
sg26
I50
sg33
g40
(g69
S'\x01\x00\x00\x00'
p3397
tp3398
Rp3399
sg18
F1.5999770489288494
sg16
F1.1830600952962413
sg29
I0
sg28
S'l'
p3400
sg22
F2.967714083380997
sg19
I96
sg24
F3.0010786291677505
sg21
I98
sa(dp3401
g30
I1
sg20
F1.79994691174943
sg27
F3.3679419812979177
sg32
g40
(g69
S'\xff\xff\xff\xff'
p3402
tp3403
Rp3404
sg39
g49
sg25
I173
sg14
I283
sg17
I66
sg37
g38
sg15
F1458.1581804970047
sg31
g40
(g44
S'"b\t\xd7\x95\xb7\xb8?'
p3405
tp3406
Rp3407
sg50
g55
sg23
I171
sg26
I33
sg33
g40
(g69
S'\xff\xff\xff\xff'
p3408
tp3409
Rp3410
sg18
F1.76669968792703
sg16
F1.099512160406448
sg29
I0
sg28
S'a'
p3411
sg22
F2.8507957365363836
sg19
I106
sg24
F2.8842482739128172
sg21
I108
sa(dp3412
g30
I1
sg20
F1.4830363375367597
sg27
F3.6181678262073547
sg32
g40
(g69
S'\xff\xff\xff\xff'
p3413
tp3414
Rp3415
sg39
g49
sg25
I196
sg14
I284
sg17
I60
sg37
g38
sg15
F1461.544156704098
sg31
g40
(g44
S'\xc3:\xa0\xc1\xf7\x97\xb7?'
p3416
tp3417
Rp3418
sg50
g55
sg23
I194
sg26
I75
sg33
g40
(g69
S'\xff\xff\xff\xff'
p3419
tp3420
Rp3421
sg18
F1.449785447330214
sg16
F0.9994379541603848
sg29
I0
sg28
S'a'
p3422
sg22
F3.234451900818385
sg19
I87
sg24
F3.267813147045672
sg21
I89
sa(dp3423
g30
I0
sg20
F1.7499065089505166
sg27
F4.435441731940955
sg32
g40
(g69
S'\x01\x00\x00\x00'
p3424
tp3425
Rp3426
sg39
g49
sg25
I206
sg14
I285
sg17
I69
sg37
g38
sg15
F1465.1803437242052
sg31
g40
(g44
S'\xa7\xc4d\x81\x1d9\xb4?'
p3427
tp3428
Rp3429
sg50
g55
sg23
I204
sg26
I69
sg33
g40
(g69
S'\xff\xff\xff\xff'
p3430
tp3431
Rp3432
sg18
F1.7166728504234925
sg16
F1.1496244228910655
sg29
I0
sg28
g129
sg22
F3.401247499510646
sg19
I103
sg24
F3.4346545746084303
sg21
I105
sa(dp3433
g30
I1
sg20
F1.6332360049709678
sg27
F2.834287796751596
sg32
g40
(g69
S'\xff\xff\xff\xff'
p3434
tp3435
Rp3436
sg39
g49
sg25
I141
sg14
I286
sg17
I61
sg37
g38
sg15
F1469.6170587666566
sg31
g40
(g44
S'\xc3:\xa0\xc1\xf7\x97\xb7?'
p3437
tp3438
Rp3439
sg50
g55
sg23
I139
sg26
I11
sg33
g40
(g69
S'\x01\x00\x00\x00'
p3440
tp3441
Rp3442
sg18
F1.6000529415905476
sg16
F1.0160903467331082
sg29
I0
sg28
S'l'
p3443
sg22
F2.3172434754669666
sg19
I96
sg24
F2.350641751429066
sg21
I98
sa(dp3444
g30
I0
sg20
F1.499700462212786
sg27
F4.23529185319785
sg32
g40
(g69
S'\xff\xff\xff\xff'
p3445
tp3446
Rp3447
sg39
g49
sg25
I194
sg14
I287
sg17
I61
sg37
g38
sg15
F1472.4693928880151
sg31
g40
(g44
S'\x05\xec\xcd\x96\xbbX\xb5?'
p3448
tp3449
Rp3450
sg50
g55
sg23
I192
sg26
I72
sg33
g40
(g69
S'\xff\xff\xff\xff'
p3451
tp3452
Rp3453
sg18
F1.4664561714744195
sg16
F1.0160390184028074
sg29
I0
sg28
g129
sg22
F3.201143449638039
sg19
I88
sg24
F3.234539525816217
sg21
I90
sa(dp3454
g30
I1
sg20
F1.8667141331825405
sg27
F4.251964410417713
sg32
g40
(g69
S'\x01\x00\x00\x00'
p3455
tp3456
Rp3457
sg39
g49
sg25
I195
sg14
I288
sg17
I65
sg37
g38
sg15
F1476.7059587847907
sg31
g40
(g44
S'\x00\x00\x00\x00\x00\x00\x00\x00'
p3458
tp3459
Rp3460
sg50
g55
sg23
I193
sg26
F51.0
sg33
g40
(g69
S'\x01\x00\x00\x00'
p3461
tp3462
Rp3463
sg18
F1.8334012823179364
sg16
F1.0828355703270063
sg29
I0
sg28
g129
sg22
F3.2178962990874425
sg19
I110
sg24
F3.251177619677037
sg21
I112
sa(dp3464
g30
I0
sg20
F1.8334636095678434
sg27
F4.368939585052431
sg32
g40
(g69
S'\x01\x00\x00\x00'
p3465
tp3466
Rp3467
sg39
g49
sg25
I202
sg14
I289
sg17
I70
sg37
g38
sg15
F1480.9592031049542
sg31
g40
(g44
S'\x05\xec\xcd\x96\xbbX\xb5?'
p3468
tp3469
Rp3470
sg50
g55
sg23
I200
sg26
I60
sg33
g40
(g69
S'\x01\x00\x00\x00'
p3471
tp3472
Rp3473
sg18
F1.8000810988014564
sg16
F1.1662680162116885
sg29
I0
sg28
g129
sg22
F3.334620697889477
sg19
I108
sg24
F3.368154627387412
sg21
I110
sa(dp3474
g30
I1
sg20
F1.8999510913854465
sg27
F2.900848238146864
sg32
g40
(g69
S'\x01\x00\x00\x00'
p3475
tp3476
Rp3477
sg39
g49
sg25
I148
sg14
I290
sg17
I65
sg37
g38
sg15
F1485.3294493638678
sg31
g40
(g44
S'\xc3:\xa0\xc1\xf7\x97\xb7?'
p3478
tp3479
Rp3480
sg50
g55
sg23
I146
sg26
I2
sg33
g40
(g69
S'\x01\x00\x00\x00'
p3481
tp3482
Rp3483
sg18
F1.8667053340468556
sg16
F1.0828769996296614
sg29
I0
sg28
S'l'
p3484
sg22
F2.4338142558699474
sg19
I112
sg24
F2.4671740354970098
sg21
I114
sa(dp3485
g30
I1
sg20
F1.8332971590571105
sg27
F4.635602243244648
sg32
g40
(g69
S'\x01\x00\x00\x00'
p3486
tp3487
Rp3488
sg39
g49
sg25
I218
sg14
I291
sg17
I72
sg37
g38
sg15
F1488.2484121200396
sg31
g40
(g44
S'\x00\x00\x00\x00\x00\x00\x00\x00'
p3489
tp3490
Rp3491
sg50
g55
sg23
I216
sg26
F76.0
sg33
g40
(g69
S'\x01\x00\x00\x00'
p3492
tp3493
Rp3494
sg18
F1.8001181286526844
sg16
F1.1994730775477365
sg29
I0
sg28
g129
sg22
F3.601476570824161
sg19
I108
sg24
F3.63482351845596
sg21
I110
sa(dp3495
g30
I0
sg20
F1.516461010905914
sg27
F4.21868895587977
sg32
g40
(g69
S'\xff\xff\xff\xff'
p3496
tp3497
Rp3498
sg39
g49
sg25
I193
sg14
I292
sg17
I62
sg37
g38
sg15
F1492.88528730697
sg31
g40
(g44
S'\x05\xec\xcd\x96\xbbX\xb5?'
p3499
tp3500
Rp3501
sg50
g55
sg23
I191
sg26
I70
sg33
g40
(g69
S'\x01\x00\x00\x00'
p3502
tp3503
Rp3504
sg18
F1.4832200198434293
sg16
F1.0328600612701848
sg29
I0
sg28
g129
sg22
F3.1845720825949684
sg19
I89
sg24
F3.2179050982231274
sg21
I91
sa(dp3505
g30
I0
sg20
F1.6165443829959258
sg27
F3.935172991361469
sg32
g40
(g69
S'\xff\xff\xff\xff'
p3506
tp3507
Rp3508
sg39
g49
sg25
I176
sg14
I293
sg17
I64
sg37
g38
sg15
F1497.1052550727036
sg31
g40
(g44
S'\xc3:\xa0\xc1\xf7\x97\xb7?'
p3509
tp3510
Rp3511
sg50
g55
sg23
I174
sg26
I47
sg33
g40
(g69
S'\xff\xff\xff\xff'
p3512
tp3513
Rp3514
sg18
F1.5832923928974196
sg16
F1.0662253403570503
sg29
I0
sg28
g129
sg22
F2.9010531849926338
sg19
I95
sg24
F2.9343502707779408
sg21
I97
sa(dp3515
g30
I0
sg20
F1.8666965349111706
sg27
F4.585609502508305
sg32
g40
(g69
S'\x01\x00\x00\x00'
p3516
tp3517
Rp3518
sg39
g49
sg25
I215
sg14
I294
sg17
I69
sg37
g38
sg15
F1501.041709807003
sg31
g40
(g44
S'\xa7\xc4d\x81\x1d9\xb4?'
p3519
tp3520
Rp3521
sg50
g55
sg23
I213
sg26
I71
sg33
g40
(g69
S'\xff\xff\xff\xff'
p3522
tp3523
Rp3524
sg18
F1.8334511441644281
sg16
F1.1495822602882981
sg29
I0
sg28
g129
sg22
F3.5514409341849387
sg19
I110
sg24
F3.584731053910218
sg21
I112
sa(dp3525
g30
I1
sg20
F1.8333330888999626
sg27
F3.6681975966785103
sg32
g40
(g69
S'\xff\xff\xff\xff'
p3526
tp3527
Rp3528
sg39
g49
sg25
I190
sg14
I295
sg17
I62
sg37
g38
sg15
F1505.628600319149
sg31
g40
(g44
S'\x05\xec\xcd\x96\xbbX\xb5?'
p3529
tp3530
Rp3531
sg50
g55
sg23
I188
sg26
I48
sg33
g40
(g69
S'\x01\x00\x00\x00'
p3532
tp3533
Rp3534
sg18
F1.8000711997738108
sg16
F1.0327977339038625
sg29
I0
sg28
S'l'
p3535
sg22
F3.134407758479938
sg19
I108
sg24
F3.1677869696868584
sg21
I110
sa(dp3536
g30
I0
sg20
F1.6998492412967607
sg27
F4.502171923755668
sg32
g40
(g69
S'\x01\x00\x00\x00'
p3537
tp3538
Rp3539
sg39
g49
sg25
I210
sg14
I296
sg17
I68
sg37
g38
sg15
F1509.314882736653
sg31
g40
(g44
S'\x05\xec\xcd\x96\xbbX\xb5?'
p3540
tp3541
Rp3542
sg50
g55
sg23
I208
sg26
I76
sg33
g40
(g69
S'\x01\x00\x00\x00'
p3543
tp3544
Rp3545
sg18
F1.6665323574561626
sg16
F1.1328976042568684
sg29
I0
sg28
g129
sg22
F3.467965592397377
sg19
I100
sg24
F3.501391365658492
sg21
I102
sa(dp3546
g30
I0
sg20
F1.5331445671617985
sg27
F3.9851723314495757
sg32
g40
(g69
S'\xff\xff\xff\xff'
p3547
tp3548
Rp3549
sg39
g49
sg25
I179
sg14
I297
sg17
I63
sg37
g38
sg15
F1513.8183353034547
sg31
g40
(g44
S'\x05\xec\xcd\x96\xbbX\xb5?'
p3550
tp3551
Rp3552
sg50
g55
sg23
I177
sg26
I55
sg33
g40
(g69
S'\xff\xff\xff\xff'
p3553
tp3554
Rp3555
sg18
F1.499894410255365
sg16
F1.0495472837937996
sg29
I0
sg28
g129
sg22
F2.950927870464511
sg19
I90
sg24
F2.984285817015916
sg21
I92
sa(dp3556
g30
I0
sg20
F1.5831604056293145
sg27
F3.9017864475026727
sg32
g40
(g69
S'\x01\x00\x00\x00'
p3557
tp3558
Rp3559
sg39
g49
sg25
I174
sg14
I298
sg17
I66
sg37
g38
sg15
F1517.8047835115576
sg31
g40
(g44
S'\x05\xec\xcd\x96\xbbX\xb5?'
p3560
tp3561
Rp3562
sg50
g55
sg23
I172
sg26
I47
sg33
g40
(g69
S'\xff\xff\xff\xff'
p3563
tp3564
Rp3565
sg18
F1.5498523209244013
sg16
F1.0995180265745148
sg29
I0
sg28
g129
sg22
F2.867623745347373
sg19
I93
sg24
F2.900929630268365
sg21
I95
sa(dp3566
g30
I1
sg20
F1.5998289298731834
sg27
F3.7349633515113965
sg32
g40
(g69
S'\xff\xff\xff\xff'
p3567
tp3568
Rp3569
sg39
g49
sg25
I194
sg14
I299
sg17
I69
sg37
g38
sg15
F1521.7078484024387
sg31
g40
(g44
S'\xc3:\xa0\xc1\xf7\x97\xb7?'
p3570
tp3571
Rp3572
sg50
g55
sg23
I192
sg26
I66
sg33
g40
(g69
S'\xff\xff\xff\xff'
p3573
tp3574
Rp3575
sg18
F1.5665399100398645
sg16
F1.1496500871144235
sg29
I0
sg28
S'a'
p3576
sg22
F3.2012277748435736
sg19
I94
sg24
F3.2345816884189844
sg21
I96
sa(dp3577
g30
I0
sg20
F1.6665250248042867
sg27
F4.235214127344079
sg32
g40
(g69
S'\x01\x00\x00\x00'
p3578
tp3579
Rp3580
sg39
g49
sg25
I194
sg14
I300
sg17
I67
sg37
g38
sg15
F1525.4608313144417
sg31
g40
(g44
S'\x05\xec\xcd\x96\xbbX\xb5?'
p3581
tp3582
Rp3583
sg50
g55
sg23
I192
sg26
I62
sg33
g40
(g69
S'\x01\x00\x00\x00'
p3584
tp3585
Rp3586
sg18
F1.6332756010815501
sg16
F1.116211848333478
sg29
I0
sg28
g129
sg22
F3.2011661807773635
sg19
I98
sg24
F3.234538792516105
sg21
I100
sa(dp3587
g30
I1
sg20
F1.6332715682219714
sg27
F3.901823843945749
sg32
g40
(g69
S'\xff\xff\xff\xff'
p3588
tp3589
Rp3590
sg39
g49
sg25
I209
sg14
I301
sg17
I64
sg37
g38
sg15
F1529.6973381836433
sg31
g40
(g44
S'\xc3:\xa0\xc1\xf7\x97\xb7?'
p3591
tp3592
Rp3593
sg50
g55
sg23
I207
sg26
I79
sg33
g40
(g69
S'\xff\xff\xff\xff'
p3594
tp3595
Rp3596
sg18
F1.6000133453635499
sg16
F1.066261636908166
sg29
I0
sg28
S'a'
p3597
sg22
F3.451460218988359
sg19
I96
sg24
F3.484818898839876
sg21
I98
sa(dp3598
g30
I0
sg20
F1.6164479589788243
sg27
F4.168472570134327
sg32
g40
(g69
S'\x01\x00\x00\x00'
p3599
tp3600
Rp3601
sg39
g49
sg25
I190
sg14
I302
sg17
I60
sg37
g38
sg15
F1533.6172600472346
sg31
g40
(g44
S'\x05\xec\xcd\x96\xbbX\xb5?'
p3602
tp3603
Rp3604
sg50
g55
sg23
I188
sg26
I61
sg33
g40
(g69
S'\x01\x00\x00\x00'
p3605
tp3606
Rp3607
sg18
F1.5832018349319696
sg16
F0.9994111901614815
sg29
I0
sg28
g129
sg22
F3.1344455215148628
sg19
I95
sg24
F3.16777523746714
sg21
I97
sa(dp3608
g30
I1
sg20
F1.8166924285469577
sg27
F3.1011557683814317
sg32
g40
(g69
S'\xff\xff\xff\xff'
p3609
tp3610
Rp3611
sg39
g49
sg25
I157
sg14
I303
sg17
I61
sg37
g38
sg15
F1537.7870143603068
sg31
g40
(g44
S'\xc3:\xa0\xc1\xf7\x97\xb7?'
p3612
tp3613
Rp3614
sg50
g55
sg23
I155
sg26
I16
sg33
g40
(g69
S'\xff\xff\xff\xff'
p3615
tp3616
Rp3617
sg18
F1.7833902100101113
sg16
F1.0161358090117574
sg29
I0
sg28
S'a'
p3618
sg22
F2.5841114470968023
sg19
I107
sg24
F2.6173905679024756
sg21
I109
sa(dp3619
g30
I1
sg20
F1.733154759509489
sg27
F3.9183222512947395
sg32
g40
(g69
S'\xff\xff\xff\xff'
p3620
tp3621
Rp3622
sg39
g49
sg25
I175
sg14
I304
sg17
I60
sg37
g38
sg15
F1540.9063117774203
sg31
g40
(g44
S'\x00\x00\x00\x00\x00\x00\x00\x00'
p3623
tp3624
Rp3625
sg50
g55
sg23
I173
sg26
F39.0
sg33
g40
(g69
S'\xff\xff\xff\xff'
p3626
tp3627
Rp3628
sg18
F1.6998485079966486
sg16
F0.9993162327446043
sg29
I0
sg28
g129
sg22
F2.884106021025218
sg19
I102
sg24
F2.9175383936380967
sg21
I104
sa(dp3629
g30
I0
sg20
F1.6498616334283724
sg27
F4.185252916999161
sg32
g40
(g69
S'\xff\xff\xff\xff'
p3630
tp3631
Rp3632
sg39
g49
sg25
I191
sg14
I305
sg17
I67
sg37
g38
sg15
F1544.8259322700324
sg31
g40
(g44
S'\x05\xec\xcd\x96\xbbX\xb5?'
p3633
tp3634
Rp3635
sg50
g55
sg23
I189
sg26
I60
sg33
g40
(g69
S'\xff\xff\xff\xff'
p3636
tp3637
Rp3638
sg18
F1.6165454828878865
sg16
F1.1161828845506534
sg29
I0
sg28
g129
sg22
F3.151101213763468
sg19
I97
sg24
F3.18453651946038
sg21
I99
sa(dp3639
g30
I0
sg20
F1.8500991370528936
sg27
F3.518195176962763
sg32
g40
(g69
S'\xff\xff\xff\xff'
p3640
tp3641
Rp3642
sg39
g49
sg25
I151
sg14
I306
sg17
I62
sg37
g38
sg15
F1549.012470962829
sg31
g40
(g44
S'\xc3:\xa0\xc1\xf7\x97\xb7?'
p3643
tp3644
Rp3645
sg50
g55
sg23
I149
sg26
I8
sg33
g40
(g69
S'\xff\xff\xff\xff'
p3646
tp3647
Rp3648
sg18
F1.8167965519241989
sg16
F1.032847962458618
sg29
I0
sg28
g129
sg22
F2.484068037942052
sg19
I109
sg24
F2.5174127857899293
sg21
I111
sa(dp3649
g30
I0
sg20
F1.800033436738886
sg27
F4.418854599935003
sg32
g40
(g69
S'\xff\xff\xff\xff'
p3650
tp3651
Rp3652
sg39
g49
sg25
I205
sg14
I307
sg17
I72
sg37
g38
sg15
F1552.531958514941
sg31
g40
(g44
S'\x05\xec\xcd\x96\xbbX\xb5?'
p3653
tp3654
Rp3655
sg50
g55
sg23
I203
sg26
I65
sg33
g40
(g69
S'\x01\x00\x00\x00'
p3656
tp3657
Rp3658
sg18
F1.766783646424301
sg16
F1.1996721583418548
sg29
I0
sg28
g129
sg22
F3.384716095402837
sg19
I106
sg24
F3.41813856898807
sg21
I108
sa(dp3659
g30
I0
sg20
F1.6499100286746398
sg27
F3.468111144960858
sg32
g40
(g69
S'\x01\x00\x00\x00'
p3660
tp3661
Rp3662
sg39
g49
sg25
I148
sg14
I308
sg17
I69
sg37
g38
sg15
F1556.9520937579218
sg31
g40
(g44
S'\x05\xec\xcd\x96\xbbX\xb5?'
p3663
tp3664
Rp3665
sg50
g55
sg23
I146
sg26
I17
sg33
g40
(g69
S'\x01\x00\x00\x00'
p3666
tp3667
Rp3668
sg18
F1.6166356740286574
sg16
F1.1496207565069199
sg29
I0
sg28
g129
sg22
F2.433944776537828
sg19
I97
sg24
F2.467307489248924
sg21
I99
sa(dp3669
g30
I0
sg20
F1.7334810612956062
sg27
F3.8185556487878785
sg32
g40
(g69
S'\x01\x00\x00\x00'
p3670
tp3671
Rp3672
sg39
g49
sg25
I169
sg14
I309
sg17
I60
sg37
g38
sg15
F1582.8387071702164
sg31
g40
(g44
S'\xc3:\xa0\xc1\xf7\x97\xb7?'
p3673
tp3674
Rp3675
sg50
g55
sg23
I167
sg26
I33
sg33
g40
(g69
S'\x01\x00\x00\x00'
p3676
tp3677
Rp3678
sg18
F1.700285165803507
sg16
F0.9996839638333768
sg29
I0
sg28
g129
sg22
F2.784493770217523
sg19
I102
sg24
F2.817777657182887
sg21
I104
sa(dp3679
g30
I1
sg20
F1.6833369018277153
sg27
F3.3513478831155226
sg32
g40
(g69
S'\x01\x00\x00\x00'
p3680
tp3681
Rp3682
sg39
g49
sg25
I176
sg14
I310
sg17
I66
sg37
g38
sg15
F1586.6586787488777
sg31
g40
(g44
S'\xc3:\xa0\xc1\xf7\x97\xb7?'
p3683
tp3684
Rp3685
sg50
g55
sg23
I174
sg26
I43
sg33
g40
(g69
S'\x01\x00\x00\x00'
p3686
tp3687
Rp3688
sg18
F1.649892063695006
sg16
F1.09943993401248
sg29
I0
sg28
S'l'
p3689
sg22
F2.901055384776555
sg19
I99
sg24
F2.9343477042857558
sg21
I101
sa(dp3690
g30
I1
sg20
F1.93337099859491
sg27
F3.5680977263255045
sg32
g40
(g69
S'\xff\xff\xff\xff'
p3691
tp3692
Rp3693
sg39
g49
sg25
I154
sg14
I311
sg17
I67
sg37
g38
sg15
F1590.028065257473
sg31
g40
(g44
S'\x00\x00\x00\x00\x00\x00\x00\x00'
p3694
tp3695
Rp3696
sg50
g55
sg23
I152
sg26
F6.0
sg33
g40
(g69
S'\xff\xff\xff\xff'
p3697
tp3698
Rp3699
sg18
F1.9001879352144897
sg16
F1.1161744520068169
sg29
I0
sg28
g129
sg22
F2.5339577553095296
sg19
I114
sg24
F2.567337699700147
sg21
I116
sa(dp3700
g30
I0
sg20
F1.5831666383892298
sg27
F3.8516364220995456
sg32
g40
(g69
S'\x01\x00\x00\x00'
p3701
tp3702
Rp3703
sg39
g49
sg25
I171
sg14
I312
sg17
I67
sg37
g38
sg15
F1593.5974527925719
sg31
g40
(g44
S'\xc3:\xa0\xc1\xf7\x97\xb7?'
p3704
tp3705
Rp3706
sg50
g55
sg23
I169
sg26
I44
sg33
g40
(g69
S'\xff\xff\xff\xff'
p3707
tp3708
Rp3709
sg18
F1.5499703761888668
sg16
F1.1162444785004482
sg29
I0
sg28
g129
sg22
F2.8174916848074645
sg19
I93
sg24
F2.850858063902706
sg21
I95
sa(dp3710
g30
I0
sg20
F1.883497413014993
sg27
F4.602309190435335
sg32
g40
(g69
S'\xff\xff\xff\xff'
p3711
tp3712
Rp3713
sg39
g49
sg25
I216
sg14
I313
sg17
I70
sg37
g38
sg15
F1597.4503830564208
sg31
g40
(g44
S'\x05\xec\xcd\x96\xbbX\xb5?'
p3714
tp3715
Rp3716
sg50
g55
sg23
I214
sg26
I71
sg33
g40
(g69
S'\xff\xff\xff\xff'
p3717
tp3718
Rp3719
sg18
F1.8501823623664677
sg16
F1.1662903807591647
sg29
I0
sg28
g129
sg22
F3.568239246029407
sg19
I111
sg24
F3.6015979257645085
sg21
I113
sa(dp3720
g30
I0
sg20
F1.5498321561608464
sg27
F3.3846552345203236
sg32
g40
(g69
S'\x01\x00\x00\x00'
p3721
tp3722
Rp3723
sg39
g49
sg25
I143
sg14
I314
sg17
I65
sg37
g38
sg15
F1602.0539838888217
sg31
g40
(g44
S'\x05\xec\xcd\x96\xbbX\xb5?'
p3724
tp3725
Rp3726
sg50
g55
sg23
I141
sg26
I18
sg33
g40
(g69
S'\xff\xff\xff\xff'
p3727
tp3728
Rp3729
sg18
F1.5165512021631002
sg16
F1.0829217286081985
sg29
I0
sg28
g129
sg22
F2.3505244293482974
sg19
I91
sg24
F2.3839652345050126
sg21
I93
sa(dp3730
g30
I0
sg20
F1.750021631247364
sg27
F4.235369578935206
sg32
g40
(g69
S'\x01\x00\x00\x00'
p3731
tp3732
Rp3733
sg39
g49
sg25
I194
sg14
I315
sg17
I60
sg37
g38
sg15
F1605.4399699949427
sg31
g40
(g44
S'\x05\xec\xcd\x96\xbbX\xb5?'
p3734
tp3735
Rp3736
sg50
g55
sg23
I192
sg26
I57
sg33
g40
(g69
S'\xff\xff\xff\xff'
p3737
tp3738
Rp3739
sg18
F1.71674141054973
sg16
F0.9995527097489685
sg29
I1
sg28
g129
sg22
F3.201206510188058
sg19
I103
sg24
F3.234603686258197
sg21
I105
sa(dp3740
g30
I0
sg20
F2.016874937689863
sg27
F4.285436012549326
sg32
g40
(g69
S'\xff\xff\xff\xff'
p3741
tp3742
Rp3743
sg39
g49
sg25
I197
sg14
I316
sg17
I69
sg37
g38
sg15
F1609.6766334157437
sg31
g40
(g44
S'\xc3:\xa0\xc1\xf7\x97\xb7?'
p3744
tp3745
Rp3746
sg50
g55
sg23
I195
sg26
I44
sg33
g40
(g69
S'\x01\x00\x00\x00'
p3747
tp3748
Rp3749
sg18
F1.9836251473752782
sg16
F1.1496394547866657
sg29
I0
sg28
g129
sg22
F3.2512813763460144
sg19
I119
sg24
F3.2846807522000745
sg21
I121
sa(dp3750
g30
I1
sg20
F1.533097638282925
sg27
F2.5172133382875472
sg32
g40
(g69
S'\x01\x00\x00\x00'
p3751
tp3752
Rp3753
sg39
g49
sg25
I124
sg14
I317
sg17
I62
sg37
g38
sg15
F1613.9634017663775
sg31
g40
(g44
S'\xa7\xc4d\x81\x1d9\xb4?'
p3754
tp3755
Rp3756
sg50
g55
sg23
I122
sg26
I0
sg33
g40
(g69
S'\x01\x00\x00\x00'
p3757
tp3758
Rp3759
sg18
F1.4998218171531335
sg16
F1.0328233980108052
sg29
I0
sg28
S'l'
p3760
sg22
F2.033488833811134
sg19
I90
sg24
F2.06686657841783
sg21
I92
sa(dp3761
g30
I1
sg20
F2.016661924892105
sg27
F3.501265611150302
sg32
g40
(g69
S'\xff\xff\xff\xff'
p3762
tp3763
Rp3764
sg39
g49
sg25
I182
sg14
I318
sg17
I72
sg37
g38
sg15
F1616.498891307041
sg31
g40
(g44
S'"b\t\xd7\x95\xb7\xb8?'
p3765
tp3766
Rp3767
sg50
g55
sg23
I180
sg26
I29
sg33
g40
(g69
S'\x01\x00\x00\x00'
p3768
tp3769
Rp3770
sg18
F1.9834136010613292
sg16
F1.1994635451119393
sg29
I0
sg28
S'l'
p3771
sg22
F3.000874415622093
sg19
I119
sg24
F3.034238961408846
sg21
I121
sa(dp3772
g30
I0
sg20
F1.9167083404026926
sg27
F4.118526758160442
sg32
g40
(g69
S'\xff\xff\xff\xff'
p3773
tp3774
Rp3775
sg39
g49
sg25
I187
sg14
I319
sg17
I63
sg37
g38
sg15
F1620.0181915105786
sg31
g40
(g44
S'\x05\xec\xcd\x96\xbbX\xb5?'
p3776
tp3777
Rp3778
sg50
g55
sg23
I185
sg26
I40
sg33
g40
(g69
S'\xff\xff\xff\xff'
p3779
tp3780
Rp3781
sg18
F1.8835282101063058
sg16
F1.0494728574994951
sg29
I0
sg28
g129
sg22
F3.0843893536366522
sg19
I113
sg24
F3.117689005797729
sg21
I115
sa(dp3782
g30
I1
sg20
F1.7833278827602044
sg27
F3.9017706824233755
sg32
g40
(g69
S'\xff\xff\xff\xff'
p3783
tp3784
Rp3785
sg39
g49
sg25
I212
sg14
I320
sg17
I62
sg37
g38
sg15
F1624.1379963454092
sg31
g40
(g44
S'\x05\xec\xcd\x96\xbbX\xb5?'
p3786
tp3787
Rp3788
sg50
g55
sg23
I210
sg26
I73
sg33
g40
(g69
S'\x01\x00\x00\x00'
p3789
tp3790
Rp3791
sg18
F1.7500857916893438
sg16
F1.0328805925091729
sg29
I0
sg28
S'l'
p3792
sg22
F3.501384033006616
sg19
I105
sg24
F3.534813106060028
sg21
I107
sa(dp3793
g30
I0
sg20
F1.866544016287662
sg27
F4.4352430178551
sg32
g40
(g69
S'\x01\x00\x00\x00'
p3794
tp3795
Rp3796
sg39
g49
sg25
I206
sg14
I321
sg17
I71
sg37
g38
sg15
F1628.057835716987
sg31
g40
(g44
S'\xc3:\xa0\xc1\xf7\x97\xb7?'
p3797
tp3798
Rp3799
sg50
g55
sg23
I204
sg26
I62
sg33
g40
(g69
S'\xff\xff\xff\xff'
p3800
tp3801
Rp3802
sg18
F1.8332927593728527
sg16
F1.1826780653791502
sg29
I0
sg28
g129
sg22
F3.40118737204466
sg19
I110
sg24
F3.4345526511315256
sg21
I112
sa(dp3803
g30
I0
sg20
F1.6666177824372426
sg27
F4.335516744758934
sg32
g40
(g69
S'\x01\x00\x00\x00'
p3804
tp3805
Rp3806
sg39
g49
sg25
I200
sg14
I322
sg17
I71
sg37
g38
sg15
F1632.4944715671008
sg31
g40
(g44
S'\x05\xec\xcd\x96\xbbX\xb5?'
p3807
tp3808
Rp3809
sg50
g55
sg23
I198
sg26
I68
sg33
g40
(g69
S'\xff\xff\xff\xff'
p3810
tp3811
Rp3812
sg18
F1.6334075883496553
sg16
F1.1829827360343188
sg29
I0
sg28
g129
sg22
F3.301380440010689
sg19
I98
sg24
F3.3347317872103304
sg21
I100
sa(dp3813
g30
I0
sg20
F1.7666454265126958
sg27
F3.5681714192032814
sg32
g40
(g69
S'\x01\x00\x00\x00'
p3814
tp3815
Rp3816
sg39
g49
sg25
I154
sg14
I323
sg17
I72
sg37
g38
sg15
F1636.8312792205252
sg31
g40
(g44
S'\x05\xec\xcd\x96\xbbX\xb5?'
p3817
tp3818
Rp3819
sg50
g55
sg23
I152
sg26
I16
sg33
g40
(g69
S'\x01\x00\x00\x00'
p3820
tp3821
Rp3822
sg18
F1.7333380751078948
sg16
F1.199647227418609
sg29
I0
sg28
g129
sg22
F2.534030348295346
sg19
I104
sg24
F2.5673886614385992
sg21
I106
sa(dp3823
g30
I0
sg20
F1.4830850994912907
sg27
F4.302075572893955
sg32
g40
(g69
S'\xff\xff\xff\xff'
p3824
tp3825
Rp3826
sg39
g49
sg25
I198
sg14
I324
sg17
I61
sg37
g38
sg15
F1640.400741181802
sg31
g40
(g44
S'\x05\xec\xcd\x96\xbbX\xb5?'
p3827
tp3828
Rp3829
sg50
g55
sg23
I196
sg26
I77
sg33
g40
(g69
S'\x01\x00\x00\x00'
p3830
tp3831
Rp3832
sg18
F1.4498628065921366
sg16
F1.016171372262761
sg29
I0
sg28
g129
sg22
F3.267927536042407
sg19
I87
sg24
F3.3013602753635496
sg21
I89
sa(dp3833
g30
I1
sg20
F1.6165542820235714
sg27
F3.5514028045581654
sg32
g40
(g69
S'\xff\xff\xff\xff'
p3834
tp3835
Rp3836
sg39
g49
sg25
I153
sg14
I325
sg17
I60
sg37
g38
sg15
F1644.7041131629376
sg31
g40
(g44
S'\x00\x00\x00\x00\x00\x00\x00\x00'
p3837
tp3838
Rp3839
sg50
g55
sg23
I151
sg26
F24.0
sg33
g40
(g69
S'\xff\xff\xff\xff'
p3840
tp3841
Rp3842
sg18
F1.5833107244689018
sg16
F0.9994881827151403
sg29
I0
sg28
g129
sg22
F2.517346425447613
sg19
I95
sg24
F2.5507069383747876
sg21
I97
sa(dp3843
g30
I0
sg20
F1.549862953252159
sg27
F3.9018172445939854
sg32
g40
(g69
S'\xff\xff\xff\xff'
p3844
tp3845
Rp3846
sg39
g49
sg25
I174
sg14
I326
sg17
I66
sg37
g38
sg15
F1648.2568076095777
sg31
g40
(g44
S'\x05\xec\xcd\x96\xbbX\xb5?'
p3847
tp3848
Rp3849
sg50
g55
sg23
I172
sg26
I49
sg33
g40
(g69
S'\x01\x00\x00\x00'
p3850
tp3851
Rp3852
sg18
F1.5166138962376863
sg16
F1.0996206832351163
sg29
I0
sg28
g129
sg22
F2.8676714074099436
sg19
I91
sg24
F2.9010612508282065
sg21
I93
sa(dp3853
g30
I0
sg20
F1.5831717711407691
sg27
F3.8016821775818244
sg32
g40
(g69
S'\xff\xff\xff\xff'
p3854
tp3855
Rp3856
sg39
g49
sg25
I168
sg14
I327
sg17
I62
sg37
g38
sg15
F1652.159944360028
sg31
g40
(g44
S'\x05\xec\xcd\x96\xbbX\xb5?'
p3857
tp3858
Rp3859
sg50
g55
sg23
I166
sg26
I41
sg33
g40
(g69
S'\xff\xff\xff\xff'
p3860
tp3861
Rp3862
sg18
F1.5498820181237534
sg16
F1.0328578614862636
sg29
I0
sg28
g129
sg22
F2.767543673166074
sg19
I93
sg24
F2.8009001531172544
sg21
I95
sa(dp3863
g30
I1
sg20
F1.9834535638801754
sg27
F3.4847848020726815
sg32
g40
(g69
S'\x01\x00\x00\x00'
p3864
tp3865
Rp3866
sg39
g49
sg25
I186
sg14
I328
sg17
I72
sg37
g38
sg15
F1655.962914880016
sg31
g40
(g44
S'"b\t\xd7\x95\xb7\xb8?'
p3867
tp3868
Rp3869
sg50
g55
sg23
I184
sg26
I35
sg33
g40
(g69
S'\xff\xff\xff\xff'
p3870
tp3871
Rp3872
sg18
F1.9502694006077945
sg16
F1.1996644589817151
sg29
I0
sg28
S'a'
p3873
sg22
F3.0677021311130375
sg19
I117
sg24
F3.1011297375662252
sg21
I119
sa(dp3874
g30
I0
sg20
F1.6330365574685857
sg27
F4.251905016135424
sg32
g40
(g69
S'\x01\x00\x00\x00'
p3875
tp3876
Rp3877
sg39
g49
sg25
I195
sg14
I329
sg17
I68
sg37
g38
sg15
F1659.4658061341615
sg31
g40
(g44
S'\x05\xec\xcd\x96\xbbX\xb5?'
p3878
tp3879
Rp3880
sg50
g55
sg23
I193
sg26
I65
sg33
g40
(g69
S'\x01\x00\x00\x00'
p3881
tp3882
Rp3883
sg18
F1.5997391052078456
sg16
F1.1327758827246726
sg29
I0
sg28
g129
sg22
F3.217673387262039
sg19
I96
sg24
F3.2510500319767743
sg21
I98
sa(dp3884
g30
I1
sg20
F1.7666446932125837
sg27
F3.4180406784871593
sg32
g40
(g69
S'\x01\x00\x00\x00'
p3885
tp3886
Rp3887
sg39
g49
sg25
I177
sg14
I330
sg17
I62
sg37
g38
sg15
F1663.718993259943
sg31
g40
(g44
S'\xa7\xc4d\x81\x1d9\xb4?'
p3888
tp3889
Rp3890
sg50
g55
sg23
I175
sg26
I39
sg33
g40
(g69
S'\x01\x00\x00\x00'
p3891
tp3892
Rp3893
sg18
F1.7333989358739927
sg16
F1.0327636372530833
sg29
I0
sg28
S'l'
p3894
sg22
F2.917566990945488
sg19
I104
sg24
F2.950944002252072
sg21
I106
sa(dp3895
g30
I1
sg20
F1.7832508902065456
sg27
F3.334515474853106
sg32
g40
(g69
S'\x01\x00\x00\x00'
p3896
tp3897
Rp3898
sg39
g49
sg25
I161
sg14
I331
sg17
I68
sg37
g38
sg15
F1667.1550795297371
sg31
g40
(g44
S'\xa7\xc4d\x81\x1d9\xb4?'
p3899
tp3900
Rp3901
sg50
g55
sg23
I159
sg26
I22
sg33
g40
(g69
S'\x01\x00\x00\x00'
p3902
tp3903
Rp3904
sg18
F1.7500197981717065
sg16
F1.1328891718294472
sg29
I0
sg28
S'l'
p3905
sg22
F2.6507173507707193
sg19
I105
sg24
F2.6840221357997507
sg21
I107
sa(dp3906
g30
I1
sg20
F1.583035017712973
sg27
F4.185258783050813
sg32
g40
(g69
S'\x01\x00\x00\x00'
p3907
tp3908
Rp3909
sg39
g49
sg25
I191
sg14
I332
sg17
I65
sg37
g38
sg15
F1670.5077568179695
sg31
g40
(g44
S'\x00\x00\x00\x00\x00\x00\x00\x00'
p3910
tp3911
Rp3912
sg50
g55
sg23
I189
sg26
F64.0
sg33
g40
(g69
S'\x01\x00\x00\x00'
p3913
tp3914
Rp3915
sg18
F1.5497947598341852
sg16
F1.0827131154946983
sg29
I0
sg28
g129
sg22
F3.1510480522410944
sg19
I93
sg24
F3.1844089317601174
sg21
I95
sa(dp3916
g30
I1
sg20
F1.7831896628485993
sg27
F3.551294281729497
sg32
g40
(g69
S'\xff\xff\xff\xff'
p3917
tp3918
Rp3919
sg39
g49
sg25
I153
sg14
I333
sg17
I72
sg37
g38
sg15
F1674.6943032100098
sg31
g40
(g44
S'\x00\x00\x00\x00\x00\x00\x00\x00'
p3920
tp3921
Rp3922
sg50
g55
sg23
I151
sg26
F14.0
sg33
g40
(g69
S'\xff\xff\xff\xff'
p3923
tp3924
Rp3925
sg18
F1.7499611371895298
sg16
F1.1995273389620706
sg29
I0
sg28
g129
sg22
F2.5171862076967955
sg19
I105
sg24
F2.5505280224606395
sg21
I107
sa(dp3926
g30
I1
sg20
F1.9167582022491843
sg27
F3.3012444198830053
sg32
g40
(g69
S'\xff\xff\xff\xff'
p3927
tp3928
Rp3929
sg39
g49
sg25
I175
sg14
I334
sg17
I67
sg37
g38
sg15
F1678.2469382622512
sg31
g40
(g44
S'\xc3:\xa0\xc1\xf7\x97\xb7?'
p3930
tp3931
Rp3932
sg50
g55
sg23
I173
sg26
I28
sg33
g40
(g69
S'\x01\x00\x00\x00'
p3933
tp3934
Rp3935
sg18
F1.8835362759418786
sg16
F1.1162147814175114
sg29
I0
sg28
S'l'
p3936
sg22
F2.8843179338146
sg19
I113
sg24
F2.91770594404079
sg21
I115
sa(dp3937
g30
I0
sg20
F1.883425553329289
sg27
F3.9017864475026727
sg32
g40
(g69
S'\x01\x00\x00\x00'
p3938
tp3939
Rp3940
sg39
g49
sg25
I174
sg14
I335
sg17
I69
sg37
g38
sg15
F1681.5662799684796
sg31
g40
(g44
S'\x05\xec\xcd\x96\xbbX\xb5?'
p3941
tp3942
Rp3943
sg50
g55
sg23
I172
sg26
I29
sg33
g40
(g69
S'\x01\x00\x00\x00'
p3944
tp3945
Rp3946
sg18
F1.8501819957746193
sg16
F1.149690416525118
sg29
I0
sg28
g129
sg22
F2.867551152361557
sg19
I111
sg24
F2.900928896968253
sg21
I113
sa(dp3947
g30
I0
sg20
F2.0001565514830872
sg27
F4.485458303708583
sg32
g40
(g69
S'\xff\xff\xff\xff'
p3948
tp3949
Rp3950
sg39
g49
sg25
I209
sg14
I336
sg17
I68
sg37
g38
sg15
F1685.4693529251963
sg31
g40
(g44
S'\xc3:\xa0\xc1\xf7\x97\xb7?'
p3951
tp3952
Rp3953
sg50
g55
sg23
I207
sg26
I57
sg33
g40
(g69
S'\x01\x00\x00\x00'
p3954
tp3955
Rp3956
sg18
F1.9669012617086992
sg16
F1.1329295011237264
sg29
I0
sg28
g129
sg22
F3.4513846929185092
sg19
I118
sg24
F3.484715508762747
sg21
I120
sa(dp3957
g30
I0
sg20
F1.766773380804807
sg27
F4.485573792597279
sg32
g40
(g69
S'\x01\x00\x00\x00'
p3958
tp3959
Rp3960
sg39
g49
sg25
I209
sg14
I337
sg17
I62
sg37
g38
sg15
F1689.95611460309
sg31
g40
(g44
S'\xc3:\xa0\xc1\xf7\x97\xb7?'
p3961
tp3962
Rp3963
sg50
g55
sg23
I207
sg26
I71
sg33
g40
(g69
S'\x01\x00\x00\x00'
p3964
tp3965
Rp3966
sg18
F1.7334000357659534
sg16
F1.0328593279700726
sg29
I0
sg28
g129
sg22
F3.4514836834277958
sg19
I104
sg24
F3.4847741697449237
sg21
I106
sa(dp3967
g30
I0
sg20
F1.950250702444464
sg27
F4.735745376092382
sg32
g40
(g69
S'\x01\x00\x00\x00'
p3968
tp3969
Rp3970
sg39
g49
sg25
I224
sg14
I338
sg17
I71
sg37
g38
sg15
F1694.4429730717093
sg31
g40
(g44
S'\x05\xec\xcd\x96\xbbX\xb5?'
p3971
tp3972
Rp3973
sg50
g55
sg23
I222
sg26
I75
sg33
g40
(g69
S'\x01\x00\x00\x00'
p3974
tp3975
Rp3976
sg18
F1.9168652585940436
sg16
F1.1829724704148248
sg29
I0
sg28
g129
sg22
F3.7015933061484247
sg19
I115
sg24
F3.7350234790937975
sg21
I117
sa(dp3977
g30
I1
sg20
F1.8167653882410377
sg27
F3.167932888958603
sg32
g40
(g69
S'\xff\xff\xff\xff'
p3978
tp3979
Rp3980
sg39
g49
sg25
I167
sg14
I339
sg17
I72
sg37
g38
sg15
F1699.1800089898752
sg31
g40
(g44
S'd\x137\xacYx\xb6?'
p3981
tp3982
Rp3983
sg50
g55
sg23
I165
sg26
I26
sg33
g40
(g69
S'\xff\xff\xff\xff'
p3984
tp3985
Rp3986
sg18
F1.7835111984750256
sg16
F1.1997238533804193
sg29
I0
sg28
S'a'
p3987
sg22
F2.750973406014964
sg19
I107
sg24
F2.7843038552673534
sg21
I109
sa(dp3988
g30
I0
sg20
F1.6495635621249676
sg27
F3.6346376362489536
sg32
g40
(g69
S'\x01\x00\x00\x00'
p3989
tp3990
Rp3991
sg39
g49
sg25
I158
sg14
I340
sg17
I68
sg37
g38
sg15
F1702.3661773850909
sg31
g40
(g44
S'\xc3:\xa0\xc1\xf7\x97\xb7?'
p3992
tp3993
Rp3994
sg50
g55
sg23
I156
sg26
I27
sg33
g40
(g69
S'\x01\x00\x00\x00'
p3995
tp3996
Rp3997
sg18
F1.6162723425077274
sg16
F1.1326171313412488
sg29
I0
sg28
g129
sg22
F2.600356145645492
sg19
I97
sg24
F2.6337892515584826
sg21
I99
sa(dp3998
g30
I1
sg20
F1.6164486921625212
sg27
F3.2512315144995227
sg32
g40
(g69
S'\x01\x00\x00\x00'
p3999
tp4000
Rp4001
sg39
g49
sg25
I171
sg14
I341
sg17
I64
sg37
g38
sg15
F1706.0021389268804
sg31
g40
(g44
S'\xc3:\xa0\xc1\xf7\x97\xb7?'
p4002
tp4003
Rp4004
sg50
g55
sg23
I169
sg26
I42
sg33
g40
(g69
S'\xff\xff\xff\xff'
p4005
tp4006
Rp4007
sg18
F1.5831743376329541
sg16
F1.0661395486677065
sg29
I0
sg28
S'a'
p4008
sg22
F2.817534580710344
sg19
I95
sg24
F2.8508855612017214
sg21
I97
sa(dp4009
g30
I1
sg20
F1.5163737527327612
sg27
F2.8842039115261286
sg32
g40
(g69
S'\xff\xff\xff\xff'
p4010
tp4011
Rp4012
sg39
g49
sg25
I136
sg14
I342
sg17
I62
sg37
g38
sg15
F1709.2713933015475
sg31
g40
(g44
S'\x05\xec\xcd\x96\xbbX\xb5?'
p4013
tp4014
Rp4015
sg50
g55
sg23
I134
sg26
I13
sg33
g40
(g69
S'\xff\xff\xff\xff'
p4016
tp4017
Rp4018
sg18
F1.4831375278299674
sg16
F1.0327808689326048
sg29
I0
sg28
S'a'
p4019
sg22
F2.2337201049085706
sg19
I89
sg24
F2.2670483543770388
sg21
I91
sa(dp4020
g30
I0
sg20
F1.8330394171644002
sg27
F3.9014264155412093
sg32
g40
(g69
S'\xff\xff\xff\xff'
p4021
tp4022
Rp4023
sg39
g49
sg25
I174
sg14
I343
sg17
I65
sg37
g38
sg15
F1712.1737146640662
sg31
g40
(g44
S'\x05\xec\xcd\x96\xbbX\xb5?'
p4024
tp4025
Rp4026
sg50
g55
sg23
I172
sg26
I32
sg33
g40
(g69
S'\x01\x00\x00\x00'
p4027
tp4028
Rp4029
sg18
F1.7997929266421124
sg16
F1.0825598634546623
sg29
I0
sg28
g129
sg22
F2.8672384158708155
sg19
I108
sg24
F2.900613594101742
sg21
I110
sa(dp4030
g30
I1
sg20
F1.9000775791937485
sg27
F3.701546010794118
sg32
g40
(g69
S'\xff\xff\xff\xff'
p4031
tp4032
Rp4033
sg39
g49
sg25
I162
sg14
I344
sg17
I66
sg37
g38
sg15
F1716.0766318024835
sg31
g40
(g44
S'\x00\x00\x00\x00\x00\x00\x00\x00'
p4034
tp4035
Rp4036
sg50
g55
sg23
I160
sg26
F16.0
sg33
g40
(g69
S'\xff\xff\xff\xff'
p4037
tp4038
Rp4039
sg18
F1.866767294704914
sg16
F1.099586586584337
sg29
I0
sg28
g129
sg22
F2.6673994404263794
sg19
I112
sg24
F2.700782317784615
sg21
I114
sa(dp4040
g30
I1
sg20
F1.75001759827137
sg27
F3.5849140029167756
sg32
g40
(g69
S'\xff\xff\xff\xff'
p4041
tp4042
Rp4043
sg39
g49
sg25
I180
sg14
I345
sg17
I66
sg37
g38
sg15
F1719.779469821835
sg31
g40
(g44
S'\xc3:\xa0\xc1\xf7\x97\xb7?'
p4044
tp4045
Rp4046
sg50
g55
sg23
I178
sg26
I43
sg33
g40
(g69
S'\xff\xff\xff\xff'
p4047
tp4048
Rp4049
sg18
F1.7167249121703207
sg16
F1.099569721496664
sg29
I0
sg28
S'a'
p4050
sg22
F2.967775677330792
sg19
I103
sg24
F3.0011915515642613
sg21
I105
sa(dp4051
g30
I1
sg20
F1.9332419442944229
sg27
F3.2177617453271523
sg32
g40
(g69
S'\xff\xff\xff\xff'
p4052
tp4053
Rp4054
sg39
g49
sg25
I154
sg14
I346
sg17
I64
sg37
g38
sg15
F1723.382436382235
sg31
g40
(g44
S'\xc3:\xa0\xc1\xf7\x97\xb7?'
p4055
tp4056
Rp4057
sg50
g55
sg23
I152
sg26
I6
sg33
g40
(g69
S'\xff\xff\xff\xff'
p4058
tp4059
Rp4060
sg18
F1.900065113673918
sg16
F1.0660027951234952
sg29
I0
sg28
S'a'
p4061
sg22
F2.533821001765318
sg19
I114
sg24
F2.5671833478845656
sg21
I116
sa(dp4062
g30
I1
sg20
F1.7825718891108409
sg27
F3.333809709525667
sg32
g40
(g69
S'\xff\xff\xff\xff'
p4063
tp4064
Rp4065
sg39
g49
sg25
I178
sg14
I347
sg17
I63
sg37
g38
sg15
F1726.6183064128272
sg31
g40
(g44
S'\x05\xec\xcd\x96\xbbX\xb5?'
p4066
tp4067
Rp4068
sg50
g55
sg23
I176
sg26
I39
sg33
g40
(g69
S'\x01\x00\x00\x00'
p4069
tp4070
Rp4071
sg18
F1.7493180658202618
sg16
F1.0487725918646902
sg29
I0
sg28
S'l'
p4072
sg22
F2.93348282109946
sg19
I105
sg24
F2.9668737644096836
sg21
I107
sa(dp4073
g30
I0
sg20
F1.8164907813770697
sg27
F3.6013761138310656
sg32
g40
(g69
S'\xff\xff\xff\xff'
p4074
tp4075
Rp4076
sg39
g49
sg25
I156
sg14
I348
sg17
I60
sg37
g38
sg15
F1729.971007165499
sg31
g40
(g44
S'\xc3:\xa0\xc1\xf7\x97\xb7?'
p4077
tp4078
Rp4079
sg50
g55
sg23
I154
sg26
I15
sg33
g40
(g69
S'\x01\x00\x00\x00'
p4080
tp4081
Rp4082
sg18
F1.7832215597154573
sg16
F0.9993440966354683
sg29
I0
sg28
g129
sg22
F2.5671987463720143
sg19
I107
sg24
F2.6005933560663834
sg21
I109
sa(dp4083
g30
I0
sg20
F1.7666633914923295
sg27
F3.684934314340353
sg32
g40
(g69
S'\xff\xff\xff\xff'
p4084
tp4085
Rp4086
sg39
g49
sg25
I161
sg14
I349
sg17
I65
sg37
g38
sg15
F1733.573662822484
sg31
g40
(g44
S'd\x137\xacYx\xb6?'
p4087
tp4088
Rp4089
sg50
g55
sg23
I159
sg26
I23
sg33
g40
(g69
S'\xff\xff\xff\xff'
p4090
tp4091
Rp4092
sg18
F1.7334077350096777
sg16
F1.0828945979010314
sg29
I0
sg28
g129
sg22
F2.6507914102403447
sg19
I104
sg24
F2.68414679041598
sg21
I106
sa(dp4093
g30
I1
sg20
F1.9500974506372586
sg27
F3.0344391422113404
sg32
g40
(g69
S'\x01\x00\x00\x00'
p4094
tp4095
Rp4096
sg39
g49
sg25
I159
sg14
I350
sg17
I69
sg37
g38
sg15
F1737.2599305746844
sg31
g40
(g44
S'"b\t\xd7\x95\xb7\xb8?'
p4097
tp4098
Rp4099
sg50
g55
sg23
I157
sg26
I10
sg33
g40
(g69
S'\xff\xff\xff\xff'
p4100
tp4101
Rp4102
sg18
F1.9168443606467918
sg16
F1.1495701614767313
sg29
I0
sg28
S'a'
p4103
sg22
F2.617382502066903
sg19
I115
sg24
F2.6507430149940774
sg21
I117
sa(dp4104
g30
I1
sg20
F1.6998470413964242
sg27
F3.6180468378588557
sg32
g40
(g69
S'\x01\x00\x00\x00'
p4105
tp4106
Rp4107
sg39
g49
sg25
I193
sg14
I351
sg17
I67
sg37
g38
sg15
F1740.3123540808447
sg31
g40
(g44
S'\xc3:\xa0\xc1\xf7\x97\xb7?'
p4108
tp4109
Rp4110
sg50
g55
sg23
I191
sg26
I59
sg33
g40
(g69
S'\x01\x00\x00\x00'
p4111
tp4112
Rp4113
sg18
F1.6666023839497939
sg16
F1.11616858583875
sg29
I0
sg28
S'l'
p4114
sg22
F3.18443716224283
sg19
I100
sg24
F3.217798775061965
sg21
I102
sa(dp4115
g30
I0
sg20
F1.4829839093144983
sg27
F3.067696998245083
sg32
g40
(g69
S'\x01\x00\x00\x00'
p4116
tp4117
Rp4118
sg39
g49
sg25
I124
sg14
I352
sg17
I61
sg37
g38
sg15
F1743.9485337683
sg31
g40
(g44
S'\xc3:\xa0\xc1\xf7\x97\xb7?'
p4119
tp4120
Rp4121
sg50
g55
sg23
I122
sg26
I3
sg33
g40
(g69
S'\xff\xff\xff\xff'
p4122
tp4123
Rp4124
sg18
F1.4496761912014335
sg16
F1.0160239865072072
sg29
I0
sg28
g129
sg22
F2.033557027229108
sg19
I87
sg24
F2.066915707080625
sg21
I89
sasS'loops'
p4125
(lp4126
sS'savePickle'
p4127
I00
sb.